C000  C000  f5  c5  JMP  00 00 00 00 fd
C5F5  C5F5  00  c5  LDX  00 00 00 00 fd
C5F7  C5F7  00  c5  STX  00 00 00 00 fd
C5F9  C5F9  10  c5  STX  00 00 00 00 fd
C5FB  C5FB  11  c5  STX  00 00 00 00 fd
C5FD  C5FD  2d  c7  JSR  00 00 00 00 fd
C72D  C72D  2d  c7  NOP  00 00 00 00 fb
C72E  C72E  2d  c7  SEC  00 00 00 00 fb
C72F  C72F  2d  c7  BCS  00 00 00 00 fb
C735  C735  2d  c7  NOP  00 00 00 00 fb
C736  C736  2d  c7  CLC  00 00 00 00 fb
C737  C737  2d  c7  BCS  00 00 00 00 fb
C739  C739  40  c7  JMP  00 00 00 00 fb
C740  C740  40  c7  NOP  00 00 00 00 fb
C741  C741  40  c7  SEC  00 00 00 00 fb
C742  C742  40  c7  BCC  00 00 00 00 fb
C744  C744  4b  c7  JMP  00 00 00 00 fb
C74B  C74B  4b  c7  NOP  00 00 00 00 fb
C74C  C74C  4b  c7  CLC  00 00 00 00 fb
C74D  C74D  4b  c7  BCC  00 00 00 00 fb
C753  C753  4b  c7  NOP  00 00 00 00 fb
C754  C754  00  c7  LDA  00 00 00 00 fb
C756  C756  00  c7  BEQ  00 00 00 00 fb
C75C  C75C  00  c7  NOP  00 00 00 00 fb
C75D  C75D  40  c7  LDA  00 00 00 00 fb
C75F  C75F  40  c7  BEQ  40 00 00 00 fb
C761  C761  68  c7  JMP  40 00 00 00 fb
C768  C768  68  c7  NOP  40 00 00 00 fb
C769  C769  40  c7  LDA  40 00 00 00 fb
C76B  C76B  40  c7  BNE  40 00 00 00 fb
C771  C771  40  c7  NOP  40 00 00 00 fb
C772  C772  00  c7  LDA  40 00 00 00 fb
C774  C774  00  c7  BNE  00 00 00 00 fb
C776  C776  7d  c7  JMP  00 00 00 00 fb
C77D  C77D  7d  c7  NOP  00 00 00 00 fb
C77E  C77E  ff  c7  LDA  00 00 00 00 fb
C780  C780  01  c7  STA  ff 00 00 00 fb
C782  C782  01  c7  BIT  ff 00 00 00 fb
C784  C784  01  c7  BVS  ff 00 00 00 fb
C78A  C78A  01  c7  NOP  ff 00 00 00 fb
C78B  C78B  01  c7  BIT  ff 00 00 00 fb
C78D  C78D  01  c7  BVC  ff 00 00 00 fb
C78F  C78F  96  c7  JMP  ff 00 00 00 fb
C796  C796  96  c7  NOP  ff 00 00 00 fb
C797  C797  00  c7  LDA  ff 00 00 00 fb
C799  C799  01  c7  STA  00 00 00 00 fb
C79B  C79B  01  c7  BIT  00 00 00 00 fb
C79D  C79D  01  c7  BVC  00 00 00 00 fb
C7A3  C7A3  01  c7  NOP  00 00 00 00 fb
C7A4  C7A4  01  c7  BIT  00 00 00 00 fb
C7A6  C7A6  01  c7  BVS  00 00 00 00 fb
C7A8  C7A8  af  c7  JMP  00 00 00 00 fb
C7AF  C7AF  af  c7  NOP  00 00 00 00 fb
C7B0  C7B0  00  c7  LDA  00 00 00 00 fb
C7B2  C7B2  00  c7  BPL  00 00 00 00 fb
C7B8  C7B8  00  c7  NOP  00 00 00 00 fb
C7B9  C7B9  80  c7  LDA  00 00 00 00 fb
C7BB  C7BB  80  c7  BPL  80 00 00 00 fb
C7BD  C7BD  d9  c7  JMP  80 00 00 00 fb
C7D9  C7D9  d9  c7  NOP  80 00 00 00 fb
C7DA  C7DA  d9  c7  RTS  80 00 00 00 fb
C600  C600  db  c7  JSR  80 00 00 00 fd
C7DB  C7DB  db  c7  NOP  80 00 00 00 fb
C7DC  C7DC  ff  c7  LDA  80 00 00 00 fb
C7DE  C7DE  01  c7  STA  ff 00 00 00 fb
C7E0  C7E0  01  c7  BIT  ff 00 00 00 fb
C7E2  C7E2  00  c7  LDA  ff 00 00 00 fb
C7E4  C7E4  00  c7  SEC  00 00 00 00 fb
C7E5  C7E5  00  c7  SEI  00 00 00 00 fb
C7E6  C7E6  00  c7  SED  00 00 00 00 fb
C7E7  C7E7  00  c7  PHP  00 00 00 00 fb
C7E8  C7E8  00  c7  PLA  00 00 00 00 fa
C7E9  C7E9  ef  c7  AND  7f 00 00 00 fb
C7EB  C7EB  6f  c7  CMP  6f 00 00 00 fb
C7ED  C7ED  6f  c7  BEQ  6f 00 00 00 fb
C7F3  C7F3  6f  c7  NOP  6f 00 00 00 fb
C7F4  C7F4  40  c7  LDA  6f 00 00 00 fb
C7F6  C7F6  01  c7  STA  40 00 00 00 fb
C7F8  C7F8  01  c7  BIT  40 00 00 00 fb
C7FA  C7FA  01  c7  CLD  40 00 00 00 fb
C7FB  C7FB  10  c7  LDA  40 00 00 00 fb
C7FD  C7FD  10  c7  CLC  10 00 00 00 fb
C7FE  C7FE  10  c7  PHP  10 00 00 00 fb
C7FF  C7FF  10  c7  PLA  10 00 00 00 fa
C800  C800  ef  c7  AND  74 00 00 00 fb
C802  C802  64  c7  CMP  64 00 00 00 fb
C804  C804  64  c7  BEQ  64 00 00 00 fb
C80A  C80A  64  c7  NOP  64 00 00 00 fb
C80B  C80B  80  c7  LDA  64 00 00 00 fb
C80D  C80D  01  c7  STA  80 00 00 00 fb
C80F  C80F  01  c7  BIT  80 00 00 00 fb
C811  C811  01  c7  SED  80 00 00 00 fb
C812  C812  00  c7  LDA  80 00 00 00 fb
C814  C814  00  c7  SEC  00 00 00 00 fb
C815  C815  00  c7  PHP  00 00 00 00 fb
C816  C816  00  c7  PLA  00 00 00 00 fa
C817  C817  ef  c7  AND  3f 00 00 00 fb
C819  C819  2f  c7  CMP  2f 00 00 00 fb
C81B  C81B  2f  c7  BEQ  2f 00 00 00 fb
C821  C821  2f  c7  NOP  2f 00 00 00 fb
C822  C822  ff  c7  LDA  2f 00 00 00 fb
C824  C824  ff  c7  PHA  ff 00 00 00 fb
C825  C825  ff  c7  PLP  ff 00 00 00 fa
C826  C826  ff  c7  BNE  ff 00 00 00 fb
C828  C828  ff  c7  BPL  ff 00 00 00 fb
C82A  C82A  ff  c7  BVC  ff 00 00 00 fb
C82C  C82C  ff  c7  BCC  ff 00 00 00 fb
C82E  C82E  35  c8  JMP  ff 00 00 00 fb
C835  C835  35  c8  NOP  ff 00 00 00 fb
C836  C836  04  c8  LDA  ff 00 00 00 fb
C838  C838  04  c8  PHA  04 00 00 00 fb
C839  C839  04  c8  PLP  04 00 00 00 fa
C83A  C83A  04  c8  BEQ  04 00 00 00 fb
C83C  C83C  04  c8  BMI  04 00 00 00 fb
C83E  C83E  04  c8  BVS  04 00 00 00 fb
C840  C840  04  c8  BCS  04 00 00 00 fb
C842  C842  49  c8  JMP  04 00 00 00 fb
C849  C849  49  c8  NOP  04 00 00 00 fb
C84A  C84A  49  c8  SED  04 00 00 00 fb
C84B  C84B  ff  c8  LDA  04 00 00 00 fb
C84D  C84D  01  c8  STA  ff 00 00 00 fb
C84F  C84F  01  c8  BIT  ff 00 00 00 fb
C851  C851  01  c8  CLC  ff 00 00 00 fb
C852  C852  00  c8  LDA  ff 00 00 00 fb
C854  C854  00  c8  PHA  00 00 00 00 fb
C855  C855  ff  c8  LDA  00 00 00 00 fa
C857  C857  ff  c8  PLA  ff 00 00 00 fa
C858  C858  ff  c8  BNE  00 00 00 00 fb
C85A  C85A  ff  c8  BMI  00 00 00 00 fb
C85C  C85C  ff  c8  BVC  00 00 00 00 fb
C85E  C85E  ff  c8  BCS  00 00 00 00 fb
C860  C860  67  c8  JMP  00 00 00 00 fb
C867  C867  67  c8  NOP  00 00 00 00 fb
C868  C868  00  c8  LDA  00 00 00 00 fb
C86A  C86A  01  c8  STA  00 00 00 00 fb
C86C  C86C  01  c8  BIT  00 00 00 00 fb
C86E  C86E  01  c8  SEC  00 00 00 00 fb
C86F  C86F  ff  c8  LDA  00 00 00 00 fb
C871  C871  ff  c8  PHA  ff 00 00 00 fb
C872  C872  00  c8  LDA  ff 00 00 00 fa
C874  C874  00  c8  PLA  00 00 00 00 fa
C875  C875  00  c8  BEQ  ff 00 00 00 fb
C877  C877  00  c8  BPL  ff 00 00 00 fb
C879  C879  00  c8  BVS  ff 00 00 00 fb
C87B  C87B  00  c8  BCC  ff 00 00 00 fb
C87D  C87D  84  c8  JMP  ff 00 00 00 fb
C884  C884  84  c8  RTS  ff 00 00 00 fb
C603  C603  85  c8  JSR  ff 00 00 00 fd
C885  C885  85  c8  NOP  ff 00 00 00 fb
C886  C886  85  c8  CLC  ff 00 00 00 fb
C887  C887  ff  c8  LDA  ff 00 00 00 fb
C889  C889  01  c8  STA  ff 00 00 00 fb
C88B  C88B  01  c8  BIT  ff 00 00 00 fb
C88D  C88D  55  c8  LDA  ff 00 00 00 fb
C88F  C88F  aa  c8  ORA  55 00 00 00 fb
C891  C891  aa  c8  BCS  ff 00 00 00 fb
C893  C893  aa  c8  BPL  ff 00 00 00 fb
C895  C895  ff  c8  CMP  ff 00 00 00 fb
C897  C897  ff  c8  BNE  ff 00 00 00 fb
C899  C899  ff  c8  BVC  ff 00 00 00 fb
C89B  C89B  a2  c8  JMP  ff 00 00 00 fb
C8A2  C8A2  a2  c8  NOP  ff 00 00 00 fb
C8A3  C8A3  a2  c8  SEC  ff 00 00 00 fb
C8A4  C8A4  a2  c8  CLV  ff 00 00 00 fb
C8A5  C8A5  00  c8  LDA  ff 00 00 00 fb
C8A7  C8A7  00  c8  ORA  00 00 00 00 fb
C8A9  C8A9  00  c8  BNE  00 00 00 00 fb
C8AB  C8AB  00  c8  BVS  00 00 00 00 fb
C8AD  C8AD  00  c8  BCC  00 00 00 00 fb
C8AF  C8AF  00  c8  BMI  00 00 00 00 fb
C8B1  C8B1  b8  c8  JMP  00 00 00 00 fb
C8B8  C8B8  b8  c8  NOP  00 00 00 00 fb
C8B9  C8B9  b8  c8  CLC  00 00 00 00 fb
C8BA  C8BA  01  c8  BIT  00 00 00 00 fb
C8BC  C8BC  55  c8  LDA  00 00 00 00 fb
C8BE  C8BE  aa  c8  AND  55 00 00 00 fb
C8C0  C8C0  aa  c8  BNE  00 00 00 00 fb
C8C2  C8C2  aa  c8  BVC  00 00 00 00 fb
C8C4  C8C4  aa  c8  BCS  00 00 00 00 fb
C8C6  C8C6  aa  c8  BMI  00 00 00 00 fb
C8C8  C8C8  cf  c8  JMP  00 00 00 00 fb
C8CF  C8CF  cf  c8  NOP  00 00 00 00 fb
C8D0  C8D0  cf  c8  SEC  00 00 00 00 fb
C8D1  C8D1  cf  c8  CLV  00 00 00 00 fb
C8D2  C8D2  f8  c8  LDA  00 00 00 00 fb
C8D4  C8D4  ef  c8  AND  f8 00 00 00 fb
C8D6  C8D6  ef  c8  BCC  e8 00 00 00 fb
C8D8  C8D8  ef  c8  BPL  e8 00 00 00 fb
C8DA  C8DA  e8  c8  CMP  e8 00 00 00 fb
C8DC  C8DC  e8  c8  BNE  e8 00 00 00 fb
C8DE  C8DE  e8  c8  BVS  e8 00 00 00 fb
C8E0  C8E0  e7  c8  JMP  e8 00 00 00 fb
C8E7  C8E7  e7  c8  NOP  e8 00 00 00 fb
C8E8  C8E8  e7  c8  CLC  e8 00 00 00 fb
C8E9  C8E9  01  c8  BIT  e8 00 00 00 fb
C8EB  C8EB  5f  c8  LDA  e8 00 00 00 fb
C8ED  C8ED  aa  c8  EOR  5f 00 00 00 fb
C8EF  C8EF  aa  c8  BCS  f5 00 00 00 fb
C8F1  C8F1  aa  c8  BPL  f5 00 00 00 fb
C8F3  C8F3  f5  c8  CMP  f5 00 00 00 fb
C8F5  C8F5  f5  c8  BNE  f5 00 00 00 fb
C8F7  C8F7  f5  c8  BVC  f5 00 00 00 fb
C8F9  C8F9  00  c9  JMP  f5 00 00 00 fb
C900  C900  00  c9  NOP  f5 00 00 00 fb
C901  C901  00  c9  SEC  f5 00 00 00 fb
C902  C902  00  c9  CLV  f5 00 00 00 fb
C903  C903  70  c9  LDA  f5 00 00 00 fb
C905  C905  70  c9  EOR  70 00 00 00 fb
C907  C907  70  c9  BNE  00 00 00 00 fb
C909  C909  70  c9  BVS  00 00 00 00 fb
C90B  C90B  70  c9  BCC  00 00 00 00 fb
C90D  C90D  70  c9  BMI  00 00 00 00 fb
C90F  C90F  16  c9  JMP  00 00 00 00 fb
C916  C916  16  c9  NOP  00 00 00 00 fb
C917  C917  16  c9  CLC  00 00 00 00 fb
C918  C918  01  c9  BIT  00 00 00 00 fb
C91A  C91A  00  c9  LDA  00 00 00 00 fb
C91C  C91C  69  c9  ADC  00 00 00 00 fb
C91E  C91E  69  c9  BMI  69 00 00 00 fb
C920  C920  69  c9  BCS  69 00 00 00 fb
C922  C922  69  c9  CMP  69 00 00 00 fb
C924  C924  69  c9  BNE  69 00 00 00 fb
C926  C926  69  c9  BVS  69 00 00 00 fb
C928  C928  2f  c9  JMP  69 00 00 00 fb
C92F  C92F  2f  c9  NOP  69 00 00 00 fb
C930  C930  2f  c9  SEC  69 00 00 00 fb
C931  C931  2f  c9  SED  69 00 00 00 fb
C932  C932  01  c9  BIT  69 00 00 00 fb
C934  C934  01  c9  LDA  69 00 00 00 fb
C936  C936  69  c9  ADC  01 00 00 00 fb
C938  C938  69  c9  BMI  6b 00 00 00 fb
C93A  C93A  69  c9  BCS  6b 00 00 00 fb
C93C  C93C  6b  c9  CMP  6b 00 00 00 fb
C93E  C93E  6b  c9  BNE  6b 00 00 00 fb
C940  C940  6b  c9  BVS  6b 00 00 00 fb
C942  C942  49  c9  JMP  6b 00 00 00 fb
C949  C949  49  c9  NOP  6b 00 00 00 fb
C94A  C94A  49  c9  CLD  6b 00 00 00 fb
C94B  C94B  49  c9  SEC  6b 00 00 00 fb
C94C  C94C  49  c9  CLV  6b 00 00 00 fb
C94D  C94D  7f  c9  LDA  6b 00 00 00 fb
C94F  C94F  7f  c9  ADC  7f 00 00 00 fb
C951  C951  7f  c9  BPL  ff 00 00 00 fb
C953  C953  7f  c9  BCS  ff 00 00 00 fb
C955  C955  ff  c9  CMP  ff 00 00 00 fb
C957  C957  ff  c9  BNE  ff 00 00 00 fb
C959  C959  ff  c9  BVC  ff 00 00 00 fb
C95B  C95B  62  c9  JMP  ff 00 00 00 fb
C962  C962  62  c9  NOP  ff 00 00 00 fb
C963  C963  62  c9  CLC  ff 00 00 00 fb
C964  C964  01  c9  BIT  ff 00 00 00 fb
C966  C966  7f  c9  LDA  ff 00 00 00 fb
C968  C968  80  c9  ADC  7f 00 00 00 fb
C96A  C96A  80  c9  BPL  ff 00 00 00 fb
C96C  C96C  80  c9  BCS  ff 00 00 00 fb
C96E  C96E  ff  c9  CMP  ff 00 00 00 fb
C970  C970  ff  c9  BNE  ff 00 00 00 fb
C972  C972  ff  c9  BVS  ff 00 00 00 fb
C974  C974  7b  c9  JMP  ff 00 00 00 fb
C97B  C97B  7b  c9  NOP  ff 00 00 00 fb
C97C  C97C  7b  c9  SEC  ff 00 00 00 fb
C97D  C97D  7b  c9  CLV  ff 00 00 00 fb
C97E  C97E  7f  c9  LDA  ff 00 00 00 fb
C980  C980  80  c9  ADC  7f 00 00 00 fb
C982  C982  80  c9  BNE  00 00 00 00 fb
C984  C984  80  c9  BMI  00 00 00 00 fb
C986  C986  80  c9  BVS  00 00 00 00 fb
C988  C988  80  c9  BCC  00 00 00 00 fb
C98A  C98A  91  c9  JMP  00 00 00 00 fb
C991  C991  91  c9  NOP  00 00 00 00 fb
C992  C992  91  c9  SEC  00 00 00 00 fb
C993  C993  91  c9  CLV  00 00 00 00 fb
C994  C994  9f  c9  LDA  00 00 00 00 fb
C996  C996  9f  c9  BEQ  9f 00 00 00 fb
C998  C998  9f  c9  BPL  9f 00 00 00 fb
C99A  C99A  9f  c9  BVS  9f 00 00 00 fb
C99C  C99C  9f  c9  BCC  9f 00 00 00 fb
C99E  C99E  a5  c9  JMP  9f 00 00 00 fb
C9A5  C9A5  a5  c9  NOP  9f 00 00 00 fb
C9A6  C9A6  a5  c9  CLC  9f 00 00 00 fb
C9A7  C9A7  01  c9  BIT  9f 00 00 00 fb
C9A9  C9A9  00  c9  LDA  9f 00 00 00 fb
C9AB  C9AB  00  c9  BNE  00 00 00 00 fb
C9AD  C9AD  00  c9  BMI  00 00 00 00 fb
C9AF  C9AF  00  c9  BVC  00 00 00 00 fb
C9B1  C9B1  00  c9  BCS  00 00 00 00 fb
C9B3  C9B3  ba  c9  JMP  00 00 00 00 fb
C9BA  C9BA  ba  c9  NOP  00 00 00 00 fb
C9BB  C9BB  01  c9  BIT  00 00 00 00 fb
C9BD  C9BD  40  c9  LDA  00 00 00 00 fb
C9BF  C9BF  40  c9  CMP  40 00 00 00 fb
C9C1  C9C1  40  c9  BMI  40 00 00 00 fb
C9C3  C9C3  40  c9  BCC  40 00 00 00 fb
C9C5  C9C5  40  c9  BNE  40 00 00 00 fb
C9C7  C9C7  40  c9  BVC  40 00 00 00 fb
C9C9  C9C9  d0  c9  JMP  40 00 00 00 fb
C9D0  C9D0  d0  c9  NOP  40 00 00 00 fb
C9D1  C9D1  d0  c9  CLV  40 00 00 00 fb
C9D2  C9D2  3f  c9  CMP  40 00 00 00 fb
C9D4  C9D4  3f  c9  BEQ  40 00 00 00 fb
C9D6  C9D6  3f  c9  BMI  40 00 00 00 fb
C9D8  C9D8  3f  c9  BCC  40 00 00 00 fb
C9DA  C9DA  3f  c9  BVS  40 00 00 00 fb
C9DC  C9DC  e3  c9  JMP  40 00 00 00 fb
C9E3  C9E3  e3  c9  NOP  40 00 00 00 fb
C9E4  C9E4  41  c9  CMP  40 00 00 00 fb
C9E6  C9E6  41  c9  BEQ  40 00 00 00 fb
C9E8  C9E8  41  c9  BPL  40 00 00 00 fb
C9EA  C9EA  41  c9  BPL  40 00 00 00 fb
C9EC  C9EC  f3  c9  JMP  40 00 00 00 fb
C9F3  C9F3  f3  c9  NOP  40 00 00 00 fb
C9F4  C9F4  80  c9  LDA  40 00 00 00 fb
C9F6  C9F6  00  c9  CMP  80 00 00 00 fb
C9F8  C9F8  00  c9  BEQ  80 00 00 00 fb
C9FA  C9FA  00  c9  BPL  80 00 00 00 fb
C9FC  C9FC  00  c9  BCC  80 00 00 00 fb
C9FE  C9FE  05  ca  JMP  80 00 00 00 fb
CA05  CA05  05  ca  NOP  80 00 00 00 fb
CA06  CA06  80  ca  CMP  80 00 00 00 fb
CA08  CA08  80  ca  BNE  80 00 00 00 fb
CA0A  CA0A  80  ca  BMI  80 00 00 00 fb
CA0C  CA0C  80  ca  BCC  80 00 00 00 fb
CA0E  CA0E  15  ca  JMP  80 00 00 00 fb
CA15  CA15  15  ca  NOP  80 00 00 00 fb
CA16  CA16  81  ca  CMP  80 00 00 00 fb
CA18  CA18  81  ca  BCS  80 00 00 00 fb
CA1A  CA1A  81  ca  BEQ  80 00 00 00 fb
CA1C  CA1C  81  ca  BPL  80 00 00 00 fb
CA1E  CA1E  25  ca  JMP  80 00 00 00 fb
CA25  CA25  25  ca  NOP  80 00 00 00 fb
CA26  CA26  7f  ca  CMP  80 00 00 00 fb
CA28  CA28  7f  ca  BCC  80 00 00 00 fb
CA2A  CA2A  7f  ca  BEQ  80 00 00 00 fb
CA2C  CA2C  7f  ca  BMI  80 00 00 00 fb
CA2E  CA2E  35  ca  JMP  80 00 00 00 fb
CA35  CA35  35  ca  NOP  80 00 00 00 fb
CA36  CA36  01  ca  BIT  80 00 00 00 fb
CA38  CA38  40  ca  LDY  80 00 00 00 fb
CA3A  CA3A  40  ca  CPY  80 00 40 00 fb
CA3C  CA3C  40  ca  BNE  80 00 40 00 fb
CA3E  CA3E  40  ca  BMI  80 00 40 00 fb
CA40  CA40  40  ca  BCC  80 00 40 00 fb
CA42  CA42  40  ca  BVC  80 00 40 00 fb
CA44  CA44  4b  ca  JMP  80 00 40 00 fb
CA4B  CA4B  4b  ca  NOP  80 00 40 00 fb
CA4C  CA4C  4b  ca  CLV  80 00 40 00 fb
CA4D  CA4D  3f  ca  CPY  80 00 40 00 fb
CA4F  CA4F  3f  ca  BEQ  80 00 40 00 fb
CA51  CA51  3f  ca  BMI  80 00 40 00 fb
CA53  CA53  3f  ca  BCC  80 00 40 00 fb
CA55  CA55  3f  ca  BVS  80 00 40 00 fb
CA57  CA57  5e  ca  JMP  80 00 40 00 fb
CA5E  CA5E  5e  ca  NOP  80 00 40 00 fb
CA5F  CA5F  41  ca  CPY  80 00 40 00 fb
CA61  CA61  41  ca  BEQ  80 00 40 00 fb
CA63  CA63  41  ca  BPL  80 00 40 00 fb
CA65  CA65  41  ca  BPL  80 00 40 00 fb
CA67  CA67  6e  ca  JMP  80 00 40 00 fb
CA6E  CA6E  6e  ca  NOP  80 00 40 00 fb
CA6F  CA6F  80  ca  LDY  80 00 40 00 fb
CA71  CA71  00  ca  CPY  80 00 80 00 fb
CA73  CA73  00  ca  BEQ  80 00 80 00 fb
CA75  CA75  00  ca  BPL  80 00 80 00 fb
CA77  CA77  00  ca  BCC  80 00 80 00 fb
CA79  CA79  80  ca  JMP  80 00 80 00 fb
CA80  CA80  80  ca  NOP  80 00 80 00 fb
CA81  CA81  80  ca  CPY  80 00 80 00 fb
CA83  CA83  80  ca  BNE  80 00 80 00 fb
CA85  CA85  80  ca  BMI  80 00 80 00 fb
CA87  CA87  80  ca  BCC  80 00 80 00 fb
CA89  CA89  90  ca  JMP  80 00 80 00 fb
CA90  CA90  90  ca  NOP  80 00 80 00 fb
CA91  CA91  81  ca  CPY  80 00 80 00 fb
CA93  CA93  81  ca  BCS  80 00 80 00 fb
CA95  CA95  81  ca  BEQ  80 00 80 00 fb
CA97  CA97  81  ca  BPL  80 00 80 00 fb
CA99  CA99  a0  ca  JMP  80 00 80 00 fb
CAA0  CAA0  a0  ca  NOP  80 00 80 00 fb
CAA1  CAA1  7f  ca  CPY  80 00 80 00 fb
CAA3  CAA3  7f  ca  BCC  80 00 80 00 fb
CAA5  CAA5  7f  ca  BEQ  80 00 80 00 fb
CAA7  CAA7  7f  ca  BMI  80 00 80 00 fb
CAA9  CAA9  b0  ca  JMP  80 00 80 00 fb
CAB0  CAB0  b0  ca  NOP  80 00 80 00 fb
CAB1  CAB1  01  ca  BIT  80 00 80 00 fb
CAB3  CAB3  40  ca  LDX  80 00 80 00 fb
CAB5  CAB5  40  ca  CPX  80 40 80 00 fb
CAB7  CAB7  40  ca  BNE  80 40 80 00 fb
CAB9  CAB9  40  ca  BMI  80 40 80 00 fb
CABB  CABB  40  ca  BCC  80 40 80 00 fb
CABD  CABD  40  ca  BVC  80 40 80 00 fb
CABF  CABF  c6  ca  JMP  80 40 80 00 fb
CAC6  CAC6  c6  ca  NOP  80 40 80 00 fb
CAC7  CAC7  c6  ca  CLV  80 40 80 00 fb
CAC8  CAC8  3f  ca  CPX  80 40 80 00 fb
CACA  CACA  3f  ca  BEQ  80 40 80 00 fb
CACC  CACC  3f  ca  BMI  80 40 80 00 fb
CACE  CACE  3f  ca  BCC  80 40 80 00 fb
CAD0  CAD0  3f  ca  BVS  80 40 80 00 fb
CAD2  CAD2  d9  ca  JMP  80 40 80 00 fb
CAD9  CAD9  d9  ca  NOP  80 40 80 00 fb
CADA  CADA  41  ca  CPX  80 40 80 00 fb
CADC  CADC  41  ca  BEQ  80 40 80 00 fb
CADE  CADE  41  ca  BPL  80 40 80 00 fb
CAE0  CAE0  41  ca  BPL  80 40 80 00 fb
CAE2  CAE2  e9  ca  JMP  80 40 80 00 fb
CAE9  CAE9  e9  ca  NOP  80 40 80 00 fb
CAEA  CAEA  80  ca  LDX  80 40 80 00 fb
CAEC  CAEC  00  ca  CPX  80 80 80 00 fb
CAEE  CAEE  00  ca  BEQ  80 80 80 00 fb
CAF0  CAF0  00  ca  BPL  80 80 80 00 fb
CAF2  CAF2  00  ca  BCC  80 80 80 00 fb
CAF4  CAF4  fb  ca  JMP  80 80 80 00 fb
CAFB  CAFB  fb  ca  NOP  80 80 80 00 fb
CAFC  CAFC  80  ca  CPX  80 80 80 00 fb
CAFE  CAFE  80  ca  BNE  80 80 80 00 fb
CB00  CB00  80  ca  BMI  80 80 80 00 fb
CB02  CB02  80  ca  BCC  80 80 80 00 fb
CB04  CB04  0b  cb  JMP  80 80 80 00 fb
CB0B  CB0B  0b  cb  NOP  80 80 80 00 fb
CB0C  CB0C  81  cb  CPX  80 80 80 00 fb
CB0E  CB0E  81  cb  BCS  80 80 80 00 fb
CB10  CB10  81  cb  BEQ  80 80 80 00 fb
CB12  CB12  81  cb  BPL  80 80 80 00 fb
CB14  CB14  1b  cb  JMP  80 80 80 00 fb
CB1B  CB1B  1b  cb  NOP  80 80 80 00 fb
CB1C  CB1C  7f  cb  CPX  80 80 80 00 fb
CB1E  CB1E  7f  cb  BCC  80 80 80 00 fb
CB20  CB20  7f  cb  BEQ  80 80 80 00 fb
CB22  CB22  7f  cb  BMI  80 80 80 00 fb
CB24  CB24  2b  cb  JMP  80 80 80 00 fb
CB2B  CB2B  2b  cb  NOP  80 80 80 00 fb
CB2C  CB2C  2b  cb  SEC  80 80 80 00 fb
CB2D  CB2D  2b  cb  CLV  80 80 80 00 fb
CB2E  CB2E  9f  cb  LDX  80 80 80 00 fb
CB30  CB30  9f  cb  BEQ  80 9f 80 00 fb
CB32  CB32  9f  cb  BPL  80 9f 80 00 fb
CB34  CB34  9f  cb  BVS  80 9f 80 00 fb
CB36  CB36  9f  cb  BCC  80 9f 80 00 fb
CB38  CB38  3f  cb  JMP  80 9f 80 00 fb
CB3F  CB3F  3f  cb  NOP  80 9f 80 00 fb
CB40  CB40  3f  cb  CLC  80 9f 80 00 fb
CB41  CB41  01  cb  BIT  80 9f 80 00 fb
CB43  CB43  00  cb  LDX  80 9f 80 00 fb
CB45  CB45  00  cb  BNE  80 00 80 00 fb
CB47  CB47  00  cb  BMI  80 00 80 00 fb
CB49  CB49  00  cb  BVC  80 00 80 00 fb
CB4B  CB4B  00  cb  BCS  80 00 80 00 fb
CB4D  CB4D  54  cb  JMP  80 00 80 00 fb
CB54  CB54  54  cb  NOP  80 00 80 00 fb
CB55  CB55  54  cb  SEC  80 00 80 00 fb
CB56  CB56  54  cb  CLV  80 00 80 00 fb
CB57  CB57  9f  cb  LDY  80 00 80 00 fb
CB59  CB59  9f  cb  BEQ  80 00 9f 00 fb
CB5B  CB5B  9f  cb  BPL  80 00 9f 00 fb
CB5D  CB5D  9f  cb  BVS  80 00 9f 00 fb
CB5F  CB5F  9f  cb  BCC  80 00 9f 00 fb
CB61  CB61  68  cb  JMP  80 00 9f 00 fb
CB68  CB68  68  cb  NOP  80 00 9f 00 fb
CB69  CB69  68  cb  CLC  80 00 9f 00 fb
CB6A  CB6A  01  cb  BIT  80 00 9f 00 fb
CB6C  CB6C  00  cb  LDY  80 00 9f 00 fb
CB6E  CB6E  00  cb  BNE  80 00 00 00 fb
CB70  CB70  00  cb  BMI  80 00 00 00 fb
CB72  CB72  00  cb  BVC  80 00 00 00 fb
CB74  CB74  00  cb  BCS  80 00 00 00 fb
CB76  CB76  7d  cb  JMP  80 00 00 00 fb
CB7D  CB7D  7d  cb  NOP  80 00 00 00 fb
CB7E  CB7E  55  cb  LDA  80 00 00 00 fb
CB80  CB80  aa  cb  LDX  55 00 00 00 fb
CB82  CB82  33  cb  LDY  55 aa 00 00 fb
CB84  CB84  55  cb  CMP  55 aa 33 00 fb
CB86  CB86  55  cb  BNE  55 aa 33 00 fb
CB88  CB88  aa  cb  CPX  55 aa 33 00 fb
CB8A  CB8A  aa  cb  BNE  55 aa 33 00 fb
CB8C  CB8C  33  cb  CPY  55 aa 33 00 fb
CB8E  CB8E  33  cb  BNE  55 aa 33 00 fb
CB90  CB90  55  cb  CMP  55 aa 33 00 fb
CB92  CB92  55  cb  BNE  55 aa 33 00 fb
CB94  CB94  aa  cb  CPX  55 aa 33 00 fb
CB96  CB96  aa  cb  BNE  55 aa 33 00 fb
CB98  CB98  33  cb  CPY  55 aa 33 00 fb
CB9A  CB9A  33  cb  BNE  55 aa 33 00 fb
CB9C  CB9C  56  cb  CMP  55 aa 33 00 fb
CB9E  CB9E  56  cb  BEQ  55 aa 33 00 fb
CBA0  CBA0  ab  cb  CPX  55 aa 33 00 fb
CBA2  CBA2  ab  cb  BEQ  55 aa 33 00 fb
CBA4  CBA4  34  cb  CPY  55 aa 33 00 fb
CBA6  CBA6  34  cb  BEQ  55 aa 33 00 fb
CBA8  CBA8  af  cb  JMP  55 aa 33 00 fb
CBAF  CBAF  71  cb  LDY  55 aa 33 00 fb
CBB1  CBB1  31  f9  JSR  55 aa 71 00 fb
F931  F931  01  f9  BIT  55 aa 71 00 f9
F933  F933  40  f9  LDA  55 aa 71 00 f9
F935  F935  40  f9  SEC  40 aa 71 00 f9
F936  F936  40  f9  RTS  40 aa 71 00 f9
CBB4  CBB4  40  f9  SBC  40 aa 71 00 fb
CBB6  CBB6  37  f9  JSR  00 aa 71 00 fb
F937  F937  37  f9  BMI  00 aa 71 00 f9
F939  F939  37  f9  BCC  00 aa 71 00 f9
F944  F944  00  f9  STY  00 aa 71 00 f9
F946  F946  00  f9  RTS  00 aa 71 00 f9
CBB9  CBB9  00  f9  INY  00 aa 71 00 fb
CBBA  CBBA  47  f9  JSR  00 aa 72 00 fb
F947  F947  47  f9  CLV  00 aa 72 00 f9
F948  F948  47  f9  SEC  00 aa 72 00 f9
F949  F949  40  f9  LDA  00 aa 72 00 f9
F94B  F94B  40  f9  RTS  40 aa 72 00 f9
CBBD  CBBD  3f  f9  SBC  40 aa 72 00 fb
CBBF  CBBF  4c  f9  JSR  01 aa 72 00 fb
F94C  F94C  4c  f9  BEQ  01 aa 72 00 f9
F94E  F94E  4c  f9  BMI  01 aa 72 00 f9
F950  F950  4c  f9  BCC  01 aa 72 00 f9
F959  F959  00  f9  STY  01 aa 72 00 f9
F95B  F95B  00  f9  RTS  01 aa 72 00 f9
CBC2  CBC2  00  f9  INY  01 aa 72 00 fb
CBC3  CBC3  5c  f9  JSR  01 aa 73 00 fb
F95C  F95C  40  f9  LDA  01 aa 73 00 f9
F95E  F95E  40  f9  SEC  40 aa 73 00 f9
F95F  F95F  01  f9  BIT  40 aa 73 00 f9
F961  F961  01  f9  RTS  40 aa 73 00 f9
CBC6  CBC6  41  f9  SBC  40 aa 73 00 fb
CBC8  CBC8  62  f9  JSR  ff aa 73 00 fb
F962  F962  62  f9  BCS  ff aa 73 00 f9
F964  F964  62  f9  BEQ  ff aa 73 00 f9
F966  F966  62  f9  BPL  ff aa 73 00 f9
F968  F968  62  f9  BVS  ff aa 73 00 f9
F96A  F96A  ff  f9  CMP  ff aa 73 00 f9
F96C  F96C  ff  f9  BNE  ff aa 73 00 f9
F96E  F96E  ff  f9  RTS  ff aa 73 00 f9
CBCB  CBCB  ff  f9  INY  ff aa 73 00 fb
CBCC  CBCC  72  f9  JSR  ff aa 74 00 fb
F972  F972  72  f9  CLC  ff aa 74 00 f9
F973  F973  80  f9  LDA  ff aa 74 00 f9
F975  F975  80  f9  RTS  80 aa 74 00 f9
CBCF  CBCF  00  f9  SBC  80 aa 74 00 fb
CBD1  CBD1  76  f9  JSR  7f aa 74 00 fb
F976  F976  76  f9  BCC  7f aa 74 00 f9
F97D  F97D  00  f9  STY  7f aa 74 00 f9
F97F  F97F  00  f9  RTS  7f aa 74 00 f9
CBD4  CBD4  00  f9  INY  7f aa 74 00 fb
CBD5  CBD5  80  f9  JSR  7f aa 75 00 fb
F980  F980  80  f9  SEC  7f aa 75 00 f9
F981  F981  81  f9  LDA  7f aa 75 00 f9
F983  F983  81  f9  RTS  81 aa 75 00 f9
CBD8  CBD8  7f  f9  SBC  81 aa 75 00 fb
CBDA  CBDA  84  f9  JSR  02 aa 75 00 fb
F984  F984  84  f9  BVC  02 aa 75 00 f9
F986  F986  84  f9  BCC  02 aa 75 00 f9
F98D  F98D  00  f9  STY  02 aa 75 00 f9
F98F  F98F  00  f9  RTS  02 aa 75 00 f9
CBDD  CBDD  00  f9  RTS  02 aa 75 00 fb
C606  C606  de  cb  JSR  02 aa 75 00 fd
CBDE  CBDE  de  cb  NOP  02 aa 75 00 fb
CBDF  CBDF  ff  cb  LDA  02 aa 75 00 fb
CBE1  CBE1  01  cb  STA  ff aa 75 00 fb
CBE3  CBE3  44  cb  LDA  ff aa 75 00 fb
CBE5  CBE5  55  cb  LDX  44 aa 75 00 fb
CBE7  CBE7  66  cb  LDY  44 55 75 00 fb
CBE9  CBE9  66  cb  INX  44 55 66 00 fb
CBEA  CBEA  66  cb  DEY  44 56 66 00 fb
CBEB  CBEB  56  cb  CPX  44 56 65 00 fb
CBED  CBED  56  cb  BNE  44 56 65 00 fb
CBEF  CBEF  65  cb  CPY  44 56 65 00 fb
CBF1  CBF1  65  cb  BNE  44 56 65 00 fb
CBF3  CBF3  65  cb  INX  44 56 65 00 fb
CBF4  CBF4  65  cb  INX  44 57 65 00 fb
CBF5  CBF5  65  cb  DEY  44 58 65 00 fb
CBF6  CBF6  65  cb  DEY  44 58 64 00 fb
CBF7  CBF7  58  cb  CPX  44 58 63 00 fb
CBF9  CBF9  58  cb  BNE  44 58 63 00 fb
CBFB  CBFB  63  cb  CPY  44 58 63 00 fb
CBFD  CBFD  63  cb  BNE  44 58 63 00 fb
CBFF  CBFF  63  cb  DEX  44 58 63 00 fb
CC00  CC00  63  cb  INY  44 57 63 00 fb
CC01  CC01  57  cb  CPX  44 57 64 00 fb
CC03  CC03  57  cb  BNE  44 57 64 00 fb
CC05  CC05  64  cb  CPY  44 57 64 00 fb
CC07  CC07  64  cb  BNE  44 57 64 00 fb
CC09  CC09  44  cb  CMP  44 57 64 00 fb
CC0B  CC0B  44  cb  BNE  44 57 64 00 fb
CC0D  CC0D  14  cc  JMP  44 57 64 00 fb
CC14  CC14  14  cc  NOP  44 57 64 00 fb
CC15  CC15  14  cc  SEC  44 57 64 00 fb
CC16  CC16  69  cc  LDX  44 57 64 00 fb
CC18  CC18  96  cc  LDA  44 69 64 00 fb
CC1A  CC1A  01  cc  BIT  96 69 64 00 fb
CC1C  CC1C  ff  cc  LDY  96 69 64 00 fb
CC1E  CC1E  ff  cc  INY  96 69 ff 00 fb
CC1F  CC1F  ff  cc  BNE  96 69 00 00 fb
CC21  CC21  ff  cc  BMI  96 69 00 00 fb
CC23  CC23  ff  cc  BCC  96 69 00 00 fb
CC25  CC25  ff  cc  BVC  96 69 00 00 fb
CC27  CC27  00  cc  CPY  96 69 00 00 fb
CC29  CC29  00  cc  BNE  96 69 00 00 fb
CC2B  CC2B  00  cc  INY  96 69 00 00 fb
CC2C  CC2C  00  cc  BEQ  96 69 01 00 fb
CC2E  CC2E  00  cc  BMI  96 69 01 00 fb
CC30  CC30  00  cc  BCC  96 69 01 00 fb
CC32  CC32  00  cc  BVC  96 69 01 00 fb
CC34  CC34  00  cc  CLC  96 69 01 00 fb
CC35  CC35  00  cc  CLV  96 69 01 00 fb
CC36  CC36  00  cc  LDY  96 69 01 00 fb
CC38  CC38  00  cc  DEY  96 69 00 00 fb
CC39  CC39  00  cc  BEQ  96 69 ff 00 fb
CC3B  CC3B  00  cc  BPL  96 69 ff 00 fb
CC3D  CC3D  00  cc  BCS  96 69 ff 00 fb
CC3F  CC3F  00  cc  BVS  96 69 ff 00 fb
CC41  CC41  ff  cc  CPY  96 69 ff 00 fb
CC43  CC43  ff  cc  BNE  96 69 ff 00 fb
CC45  CC45  ff  cc  CLC  96 69 ff 00 fb
CC46  CC46  ff  cc  DEY  96 69 ff 00 fb
CC47  CC47  ff  cc  BEQ  96 69 fe 00 fb
CC49  CC49  ff  cc  BPL  96 69 fe 00 fb
CC4B  CC4B  ff  cc  BCS  96 69 fe 00 fb
CC4D  CC4D  ff  cc  BVS  96 69 fe 00 fb
CC4F  CC4F  fe  cc  CPY  96 69 fe 00 fb
CC51  CC51  fe  cc  BNE  96 69 fe 00 fb
CC53  CC53  96  cc  CMP  96 69 fe 00 fb
CC55  CC55  96  cc  BNE  96 69 fe 00 fb
CC57  CC57  69  cc  CPX  96 69 fe 00 fb
CC59  CC59  69  cc  BNE  96 69 fe 00 fb
CC5B  CC5B  62  cc  JMP  96 69 fe 00 fb
CC62  CC62  62  cc  NOP  96 69 fe 00 fb
CC63  CC63  62  cc  SEC  96 69 fe 00 fb
CC64  CC64  69  cc  LDY  96 69 fe 00 fb
CC66  CC66  96  cc  LDA  96 69 69 00 fb
CC68  CC68  01  cc  BIT  96 69 69 00 fb
CC6A  CC6A  ff  cc  LDX  96 69 69 00 fb
CC6C  CC6C  ff  cc  INX  96 ff 69 00 fb
CC6D  CC6D  ff  cc  BNE  96 00 69 00 fb
CC6F  CC6F  ff  cc  BMI  96 00 69 00 fb
CC71  CC71  ff  cc  BCC  96 00 69 00 fb
CC73  CC73  ff  cc  BVC  96 00 69 00 fb
CC75  CC75  00  cc  CPX  96 00 69 00 fb
CC77  CC77  00  cc  BNE  96 00 69 00 fb
CC79  CC79  00  cc  INX  96 00 69 00 fb
CC7A  CC7A  00  cc  BEQ  96 01 69 00 fb
CC7C  CC7C  00  cc  BMI  96 01 69 00 fb
CC7E  CC7E  00  cc  BCC  96 01 69 00 fb
CC80  CC80  00  cc  BVC  96 01 69 00 fb
CC82  CC82  00  cc  CLC  96 01 69 00 fb
CC83  CC83  00  cc  CLV  96 01 69 00 fb
CC84  CC84  00  cc  LDX  96 01 69 00 fb
CC86  CC86  00  cc  DEX  96 00 69 00 fb
CC87  CC87  00  cc  BEQ  96 ff 69 00 fb
CC89  CC89  00  cc  BPL  96 ff 69 00 fb
CC8B  CC8B  00  cc  BCS  96 ff 69 00 fb
CC8D  CC8D  00  cc  BVS  96 ff 69 00 fb
CC8F  CC8F  ff  cc  CPX  96 ff 69 00 fb
CC91  CC91  ff  cc  BNE  96 ff 69 00 fb
CC93  CC93  ff  cc  CLC  96 ff 69 00 fb
CC94  CC94  ff  cc  DEX  96 ff 69 00 fb
CC95  CC95  ff  cc  BEQ  96 fe 69 00 fb
CC97  CC97  ff  cc  BPL  96 fe 69 00 fb
CC99  CC99  ff  cc  BCS  96 fe 69 00 fb
CC9B  CC9B  ff  cc  BVS  96 fe 69 00 fb
CC9D  CC9D  fe  cc  CPX  96 fe 69 00 fb
CC9F  CC9F  fe  cc  BNE  96 fe 69 00 fb
CCA1  CCA1  96  cc  CMP  96 fe 69 00 fb
CCA3  CCA3  96  cc  BNE  96 fe 69 00 fb
CCA5  CCA5  69  cc  CPY  96 fe 69 00 fb
CCA7  CCA7  69  cc  BNE  96 fe 69 00 fb
CCA9  CCA9  b0  cc  JMP  96 fe 69 00 fb
CCB0  CCB0  b0  cc  NOP  96 fe 69 00 fb
CCB1  CCB1  85  cc  LDA  96 fe 69 00 fb
CCB3  CCB3  34  cc  LDX  85 fe 69 00 fb
CCB5  CCB5  99  cc  LDY  85 34 69 00 fb
CCB7  CCB7  99  cc  CLC  85 34 99 00 fb
CCB8  CCB8  01  cc  BIT  85 34 99 00 fb
CCBA  CCBA  01  cc  TAY  85 34 99 00 fb
CCBB  CCBB  01  cc  BEQ  85 34 85 00 fb
CCBD  CCBD  01  cc  BCS  85 34 85 00 fb
CCBF  CCBF  01  cc  BVC  85 34 85 00 fb
CCC1  CCC1  01  cc  BPL  85 34 85 00 fb
CCC3  CCC3  85  cc  CMP  85 34 85 00 fb
CCC5  CCC5  85  cc  BNE  85 34 85 00 fb
CCC7  CCC7  34  cc  CPX  85 34 85 00 fb
CCC9  CCC9  34  cc  BNE  85 34 85 00 fb
CCCB  CCCB  85  cc  CPY  85 34 85 00 fb
CCCD  CCCD  85  cc  BNE  85 34 85 00 fb
CCCF  CCCF  00  cc  LDA  85 34 85 00 fb
CCD1  CCD1  00  cc  SEC  00 34 85 00 fb
CCD2  CCD2  00  cc  CLV  00 34 85 00 fb
CCD3  CCD3  00  cc  TAY  00 34 85 00 fb
CCD4  CCD4  00  cc  BNE  00 34 00 00 fb
CCD6  CCD6  00  cc  BCC  00 34 00 00 fb
CCD8  CCD8  00  cc  BVS  00 34 00 00 fb
CCDA  CCDA  00  cc  BMI  00 34 00 00 fb
CCDC  CCDC  00  cc  CMP  00 34 00 00 fb
CCDE  CCDE  00  cc  BNE  00 34 00 00 fb
CCE0  CCE0  34  cc  CPX  00 34 00 00 fb
CCE2  CCE2  34  cc  BNE  00 34 00 00 fb
CCE4  CCE4  00  cc  CPY  00 34 00 00 fb
CCE6  CCE6  00  cc  BNE  00 34 00 00 fb
CCE8  CCE8  ef  cc  JMP  00 34 00 00 fb
CCEF  CCEF  ef  cc  NOP  00 34 00 00 fb
CCF0  CCF0  85  cc  LDA  00 34 00 00 fb
CCF2  CCF2  34  cc  LDX  85 34 00 00 fb
CCF4  CCF4  99  cc  LDY  85 34 00 00 fb
CCF6  CCF6  99  cc  CLC  85 34 99 00 fb
CCF7  CCF7  01  cc  BIT  85 34 99 00 fb
CCF9  CCF9  01  cc  TAX  85 34 99 00 fb
CCFA  CCFA  01  cc  BEQ  85 85 99 00 fb
CCFC  CCFC  01  cc  BCS  85 85 99 00 fb
CCFE  CCFE  01  cc  BVC  85 85 99 00 fb
CD00  CD00  01  cc  BPL  85 85 99 00 fb
CD02  CD02  85  cc  CMP  85 85 99 00 fb
CD04  CD04  85  cc  BNE  85 85 99 00 fb
CD06  CD06  85  cc  CPX  85 85 99 00 fb
CD08  CD08  85  cc  BNE  85 85 99 00 fb
CD0A  CD0A  99  cc  CPY  85 85 99 00 fb
CD0C  CD0C  99  cc  BNE  85 85 99 00 fb
CD0E  CD0E  00  cc  LDA  85 85 99 00 fb
CD10  CD10  00  cc  SEC  00 85 99 00 fb
CD11  CD11  00  cc  CLV  00 85 99 00 fb
CD12  CD12  00  cc  TAX  00 85 99 00 fb
CD13  CD13  00  cc  BNE  00 00 99 00 fb
CD15  CD15  00  cc  BCC  00 00 99 00 fb
CD17  CD17  00  cc  BVS  00 00 99 00 fb
CD19  CD19  00  cc  BMI  00 00 99 00 fb
CD1B  CD1B  00  cc  CMP  00 00 99 00 fb
CD1D  CD1D  00  cc  BNE  00 00 99 00 fb
CD1F  CD1F  00  cc  CPX  00 00 99 00 fb
CD21  CD21  00  cc  BNE  00 00 99 00 fb
CD23  CD23  99  cc  CPY  00 00 99 00 fb
CD25  CD25  99  cc  BNE  00 00 99 00 fb
CD27  CD27  2e  cd  JMP  00 00 99 00 fb
CD2E  CD2E  2e  cd  NOP  00 00 99 00 fb
CD2F  CD2F  85  cd  LDA  00 00 99 00 fb
CD31  CD31  34  cd  LDX  85 00 99 00 fb
CD33  CD33  99  cd  LDY  85 34 99 00 fb
CD35  CD35  99  cd  CLC  85 34 99 00 fb
CD36  CD36  01  cd  BIT  85 34 99 00 fb
CD38  CD38  01  cd  TYA  85 34 99 00 fb
CD39  CD39  01  cd  BEQ  99 34 99 00 fb
CD3B  CD3B  01  cd  BCS  99 34 99 00 fb
CD3D  CD3D  01  cd  BVC  99 34 99 00 fb
CD3F  CD3F  01  cd  BPL  99 34 99 00 fb
CD41  CD41  99  cd  CMP  99 34 99 00 fb
CD43  CD43  99  cd  BNE  99 34 99 00 fb
CD45  CD45  34  cd  CPX  99 34 99 00 fb
CD47  CD47  34  cd  BNE  99 34 99 00 fb
CD49  CD49  99  cd  CPY  99 34 99 00 fb
CD4B  CD4B  99  cd  BNE  99 34 99 00 fb
CD4D  CD4D  00  cd  LDY  99 34 99 00 fb
CD4F  CD4F  00  cd  SEC  99 34 00 00 fb
CD50  CD50  00  cd  CLV  99 34 00 00 fb
CD51  CD51  00  cd  TYA  99 34 00 00 fb
CD52  CD52  00  cd  BNE  00 34 00 00 fb
CD54  CD54  00  cd  BCC  00 34 00 00 fb
CD56  CD56  00  cd  BVS  00 34 00 00 fb
CD58  CD58  00  cd  BMI  00 34 00 00 fb
CD5A  CD5A  00  cd  CMP  00 34 00 00 fb
CD5C  CD5C  00  cd  BNE  00 34 00 00 fb
CD5E  CD5E  34  cd  CPX  00 34 00 00 fb
CD60  CD60  34  cd  BNE  00 34 00 00 fb
CD62  CD62  00  cd  CPY  00 34 00 00 fb
CD64  CD64  00  cd  BNE  00 34 00 00 fb
CD66  CD66  6d  cd  JMP  00 34 00 00 fb
CD6D  CD6D  6d  cd  NOP  00 34 00 00 fb
CD6E  CD6E  85  cd  LDA  00 34 00 00 fb
CD70  CD70  34  cd  LDX  85 34 00 00 fb
CD72  CD72  99  cd  LDY  85 34 00 00 fb
CD74  CD74  99  cd  CLC  85 34 99 00 fb
CD75  CD75  01  cd  BIT  85 34 99 00 fb
CD77  CD77  01  cd  TXA  85 34 99 00 fb
CD78  CD78  01  cd  BEQ  34 34 99 00 fb
CD7A  CD7A  01  cd  BCS  34 34 99 00 fb
CD7C  CD7C  01  cd  BVC  34 34 99 00 fb
CD7E  CD7E  01  cd  BMI  34 34 99 00 fb
CD80  CD80  34  cd  CMP  34 34 99 00 fb
CD82  CD82  34  cd  BNE  34 34 99 00 fb
CD84  CD84  34  cd  CPX  34 34 99 00 fb
CD86  CD86  34  cd  BNE  34 34 99 00 fb
CD88  CD88  99  cd  CPY  34 34 99 00 fb
CD8A  CD8A  99  cd  BNE  34 34 99 00 fb
CD8C  CD8C  00  cd  LDX  34 34 99 00 fb
CD8E  CD8E  00  cd  SEC  34 00 99 00 fb
CD8F  CD8F  00  cd  CLV  34 00 99 00 fb
CD90  CD90  00  cd  TXA  34 00 99 00 fb
CD91  CD91  00  cd  BNE  00 00 99 00 fb
CD93  CD93  00  cd  BCC  00 00 99 00 fb
CD95  CD95  00  cd  BVS  00 00 99 00 fb
CD97  CD97  00  cd  BMI  00 00 99 00 fb
CD99  CD99  00  cd  CMP  00 00 99 00 fb
CD9B  CD9B  00  cd  BNE  00 00 99 00 fb
CD9D  CD9D  00  cd  CPX  00 00 99 00 fb
CD9F  CD9F  00  cd  BNE  00 00 99 00 fb
CDA1  CDA1  99  cd  CPY  00 00 99 00 fb
CDA3  CDA3  99  cd  BNE  00 00 99 00 fb
CDA5  CDA5  ac  cd  JMP  00 00 99 00 fb
CDAC  CDAC  ac  cd  NOP  00 00 99 00 fb
CDAD  CDAD  ac  cd  TSX  00 00 99 00 fb
CDAE  CDAE  ff  07  STX  00 fb 99 00 fb
CDB1  CDB1  33  07  LDY  00 fb 99 00 fb
CDB3  CDB3  69  07  LDX  00 fb 33 00 fb
CDB5  CDB5  84  07  LDA  00 69 33 00 fb
CDB7  CDB7  84  07  CLC  84 69 33 00 fb
CDB8  CDB8  01  07  BIT  84 69 33 00 fb
CDBA  CDBA  01  07  TXS  84 69 33 00 fb
CDBB  CDBB  01  07  BEQ  84 69 33 00 69
CDBD  CDBD  01  07  BPL  84 69 33 00 69
CDBF  CDBF  01  07  BCS  84 69 33 00 69
CDC1  CDC1  01  07  BVC  84 69 33 00 69
CDC3  CDC3  84  07  CMP  84 69 33 00 69
CDC5  CDC5  84  07  BNE  84 69 33 00 69
CDC7  CDC7  69  07  CPX  84 69 33 00 69
CDC9  CDC9  69  07  BNE  84 69 33 00 69
CDCB  CDCB  33  07  CPY  84 69 33 00 69
CDCD  CDCD  33  07  BNE  84 69 33 00 69
CDCF  CDCF  01  07  LDY  84 69 33 00 69
CDD1  CDD1  04  07  LDA  84 69 01 00 69
CDD3  CDD3  04  07  SEC  04 69 01 00 69
CDD4  CDD4  04  07  CLV  04 69 01 00 69
CDD5  CDD5  00  07  LDX  04 69 01 00 69
CDD7  CDD7  00  07  TSX  04 00 01 00 69
CDD8  CDD8  00  07  BEQ  04 69 01 00 69
CDDA  CDDA  00  07  BMI  04 69 01 00 69
CDDC  CDDC  00  07  BCC  04 69 01 00 69
CDDE  CDDE  00  07  BVS  04 69 01 00 69
CDE0  CDE0  69  07  CPX  04 69 01 00 69
CDE2  CDE2  69  07  BNE  04 69 01 00 69
CDE4  CDE4  04  07  CMP  04 69 01 00 69
CDE6  CDE6  04  07  BNE  04 69 01 00 69
CDE8  CDE8  01  07  CPY  04 69 01 00 69
CDEA  CDEA  01  07  BNE  04 69 01 00 69
CDEC  CDEC  f3  cd  JMP  04 69 01 00 69
CDF3  CDF3  ff  07  LDX  04 69 01 00 69
CDF6  CDF6  ff  07  TXS  04 fb 01 00 69
CDF7  CDF7  ff  07  RTS  04 fb 01 00 fb
C609  C609  f8  cd  JSR  04 fb 01 00 fd
CDF8  CDF8  ff  cd  LDA  04 fb 01 00 fb
CDFA  CDFA  01  cd  STA  ff fb 01 00 fb
CDFC  CDFC  01  cd  TSX  ff fb 01 00 fb
CDFD  CDFD  ff  07  STX  ff fb 01 00 fb
CE00  CE00  ff  07  NOP  ff fb 01 00 fb
CE01  CE01  80  07  LDX  ff fb 01 00 fb
CE03  CE03  80  07  TXS  ff 80 01 00 fb
CE04  CE04  33  07  LDA  ff 80 01 00 80
CE06  CE06  33  07  PHA  33 80 01 00 80
CE07  CE07  69  07  LDA  33 80 01 00 7f
CE09  CE09  69  07  PHA  69 80 01 00 7f
CE0A  CE0A  69  07  TSX  69 80 01 00 7e
CE0B  CE0B  7e  07  CPX  69 7e 01 00 7e
CE0D  CE0D  7e  07  BNE  69 7e 01 00 7e
CE0F  CE0F  7e  07  PLA  69 7e 01 00 7e
CE10  CE10  69  07  CMP  69 7e 01 00 7f
CE12  CE12  69  07  BNE  69 7e 01 00 7f
CE14  CE14  69  07  PLA  69 7e 01 00 7f
CE15  CE15  33  07  CMP  33 7e 01 00 80
CE17  CE17  33  07  BNE  33 7e 01 00 80
CE19  CE19  33  07  TSX  33 7e 01 00 80
CE1A  CE1A  80  07  CPX  33 80 01 00 80
CE1C  CE1C  80  07  BNE  33 80 01 00 80
CE1E  CE1E  80  01  LDA  33 80 01 00 80
CE21  CE21  33  01  CMP  00 80 01 00 80
CE23  CE23  33  01  BNE  00 80 01 00 80
CE2F  CE2F  46  01  LDX  00 80 01 00 80
CE31  CE31  00  01  STX  00 46 01 00 80
CE33  CE33  00  01  NOP  00 46 01 00 80
CE34  CE34  80  01  LDX  00 46 01 00 80
CE36  CE36  80  01  TXS  00 80 01 00 80
CE37  CE37  3d  ce  JSR  00 80 01 00 80
CE3D  CE3D  3d  ce  TSX  00 80 01 00 7e
CE3E  CE3E  7e  ce  CPX  00 7e 01 00 7e
CE40  CE40  7e  ce  BNE  00 7e 01 00 7e
CE42  CE42  7e  ce  PLA  00 7e 01 00 7e
CE43  CE43  7e  ce  PLA  39 7e 01 00 7f
CE44  CE44  7e  ce  TSX  ce 7e 01 00 80
CE45  CE45  80  ce  CPX  ce 80 01 00 80
CE47  CE47  80  ce  BNE  ce 80 01 00 80
CE49  CE49  00  ce  LDA  ce 80 01 00 80
CE4B  CE4B  4e  ce  JSR  00 80 01 00 80
CE4E  CE4E  4e  ce  PLA  00 80 01 00 7e
CE4F  CE4F  4d  ce  CMP  4d 80 01 00 7f
CE51  CE51  4d  ce  BNE  4d 80 01 00 7f
CE53  CE53  4d  ce  PLA  4d 80 01 00 7f
CE54  CE54  ce  ce  CMP  ce 80 01 00 80
CE56  CE56  ce  ce  BNE  ce 80 01 00 80
CE58  CE58  5f  ce  JMP  ce 80 01 00 80
CE5F  CE5F  5f  ce  NOP  ce 80 01 00 80
CE60  CE60  ce  ce  LDA  ce 80 01 00 80
CE62  CE62  ce  ce  PHA  ce 80 01 00 80
CE63  CE63  66  ce  LDA  ce 80 01 00 7f
CE65  CE65  66  ce  PHA  66 80 01 00 7f
CE66  CE66  66  ce  RTS  66 80 01 00 7e
CE67  CE67  77  ce  LDX  66 80 01 00 80
CE69  CE69  69  ce  LDY  66 77 01 00 80
CE6B  CE6B  69  ce  CLC  66 77 69 00 80
CE6C  CE6C  01  ce  BIT  66 77 69 00 80
CE6E  CE6E  83  ce  LDA  66 77 69 00 80
CE70  CE70  66  ce  JSR  83 77 69 00 80
CE66  CE66  66  ce  RTS  83 77 69 00 7e
CE73  CE73  66  ce  BEQ  83 77 69 00 80
CE75  CE75  66  ce  BPL  83 77 69 00 80
CE77  CE77  66  ce  BCS  83 77 69 00 80
CE79  CE79  66  ce  BVC  83 77 69 00 80
CE7B  CE7B  83  ce  CMP  83 77 69 00 80
CE7D  CE7D  83  ce  BNE  83 77 69 00 80
CE7F  CE7F  69  ce  CPY  83 77 69 00 80
CE81  CE81  69  ce  BNE  83 77 69 00 80
CE83  CE83  77  ce  CPX  83 77 69 00 80
CE85  CE85  77  ce  BNE  83 77 69 00 80
CE87  CE87  77  ce  SEC  83 77 69 00 80
CE88  CE88  77  ce  CLV  83 77 69 00 80
CE89  CE89  00  ce  LDA  83 77 69 00 80
CE8B  CE8B  66  ce  JSR  00 77 69 00 80
CE66  CE66  66  ce  RTS  00 77 69 00 7e
CE8E  CE8E  66  ce  BNE  00 77 69 00 80
CE90  CE90  66  ce  BMI  00 77 69 00 80
CE92  CE92  66  ce  BCC  00 77 69 00 80
CE94  CE94  66  ce  BVS  00 77 69 00 80
CE96  CE96  9d  ce  JMP  00 77 69 00 80
CE9D  CE9D  9d  ce  NOP  00 77 69 00 80
CE9E  CE9E  ce  ce  LDA  00 77 69 00 80
CEA0  CEA0  ce  ce  PHA  ce 77 69 00 80
CEA1  CEA1  ae  ce  LDA  ce 77 69 00 7f
CEA3  CEA3  ae  ce  PHA  ae 77 69 00 7f
CEA4  CEA4  65  ce  LDA  ae 77 69 00 7e
CEA6  CEA6  65  ce  PHA  65 77 69 00 7e
CEA7  CEA7  55  ce  LDA  65 77 69 00 7d
CEA9  CEA9  88  ce  LDY  55 77 69 00 7d
CEAB  CEAB  99  ce  LDX  55 77 88 00 7d
CEAD  CEAD  99  ce  RTI  55 99 88 00 7d
CEAE  CEAE  99  ce  BMI  55 99 88 00 80
CEB0  CEB0  99  ce  BVC  55 99 88 00 80
CEB2  CEB2  99  ce  BEQ  55 99 88 00 80
CEB4  CEB4  99  ce  BCC  55 99 88 00 80
CEB6  CEB6  55  ce  CMP  55 99 88 00 80
CEB8  CEB8  55  ce  BNE  55 99 88 00 80
CEBA  CEBA  88  ce  CPY  55 99 88 00 80
CEBC  CEBC  88  ce  BNE  55 99 88 00 80
CEBE  CEBE  99  ce  CPX  55 99 88 00 80
CEC0  CEC0  99  ce  BNE  55 99 88 00 80
CEC2  CEC2  ce  ce  LDA  55 99 88 00 80
CEC4  CEC4  ce  ce  PHA  ce 99 88 00 80
CEC5  CEC5  ce  ce  LDA  ce 99 88 00 7f
CEC7  CEC7  ce  ce  PHA  ce 99 88 00 7f
CEC8  CEC8  87  ce  LDA  ce 99 88 00 7e
CECA  CECA  87  ce  PHA  87 99 88 00 7e
CECB  CECB  55  ce  LDA  87 99 88 00 7d
CECD  CECD  55  ce  RTI  55 99 88 00 7d
CECE  CECE  55  ce  BPL  55 99 88 00 80
CED0  CED0  55  ce  BVS  55 99 88 00 80
CED2  CED2  55  ce  BNE  55 99 88 00 80
CED4  CED4  55  ce  BCC  55 99 88 00 80
CED6  CED6  55  ce  CMP  55 99 88 00 80
CED8  CED8  55  ce  BNE  55 99 88 00 80
CEDA  CEDA  88  ce  CPY  55 99 88 00 80
CEDC  CEDC  88  ce  BNE  55 99 88 00 80
CEDE  CEDE  99  ce  CPX  55 99 88 00 80
CEE0  CEE0  99  ce  BNE  55 99 88 00 80
CEE2  CEE2  e9  ce  JMP  55 99 88 00 80
CEE9  CEE9  ff  07  LDX  55 99 88 00 80
CEEC  CEEC  ff  07  TXS  55 fb 88 00 80
CEED  CEED  ff  07  RTS  55 fb 88 00 fb
C60C  C60C  ee  ce  JSR  55 fb 88 00 fd
CEEE  CEEE  55  ce  LDX  55 fb 88 00 fb
CEF0  CEF0  69  ce  LDY  55 55 88 00 fb
CEF2  CEF2  ff  ce  LDA  55 55 69 00 fb
CEF4  CEF4  01  ce  STA  ff 55 69 00 fb
CEF6  CEF6  01  ce  NOP  ff 55 69 00 fb
CEF7  CEF7  01  ce  BIT  ff 55 69 00 fb
CEF9  CEF9  01  ce  SEC  ff 55 69 00 fb
CEFA  CEFA  01  ce  LDA  ff 55 69 00 fb
CEFC  CEFC  01  ce  LSR  01 55 69 00 fb
CEFD  CEFD  01  ce  BCC  00 55 69 00 fb
CEFF  CEFF  01  ce  BNE  00 55 69 00 fb
CF01  CF01  01  ce  BMI  00 55 69 00 fb
CF03  CF03  01  ce  BVC  00 55 69 00 fb
CF05  CF05  00  ce  CMP  00 55 69 00 fb
CF07  CF07  00  ce  BNE  00 55 69 00 fb
CF09  CF09  00  ce  CLV  00 55 69 00 fb
CF0A  CF0A  aa  ce  LDA  00 55 69 00 fb
CF0C  CF0C  aa  ce  LSR  aa 55 69 00 fb
CF0D  CF0D  aa  ce  BCS  55 55 69 00 fb
CF0F  CF0F  aa  ce  BEQ  55 55 69 00 fb
CF11  CF11  aa  ce  BMI  55 55 69 00 fb
CF13  CF13  aa  ce  BVS  55 55 69 00 fb
CF15  CF15  55  ce  CMP  55 55 69 00 fb
CF17  CF17  55  ce  BNE  55 55 69 00 fb
CF19  CF19  20  cf  JMP  55 55 69 00 fb
CF20  CF20  20  cf  NOP  55 55 69 00 fb
CF21  CF21  01  cf  BIT  55 55 69 00 fb
CF23  CF23  01  cf  SEC  55 55 69 00 fb
CF24  CF24  80  cf  LDA  55 55 69 00 fb
CF26  CF26  80  cf  ASL  80 55 69 00 fb
CF27  CF27  80  cf  BCC  00 55 69 00 fb
CF29  CF29  80  cf  BNE  00 55 69 00 fb
CF2B  CF2B  80  cf  BMI  00 55 69 00 fb
CF2D  CF2D  80  cf  BVC  00 55 69 00 fb
CF2F  CF2F  00  cf  CMP  00 55 69 00 fb
CF31  CF31  00  cf  BNE  00 55 69 00 fb
CF33  CF33  00  cf  CLV  00 55 69 00 fb
CF34  CF34  00  cf  SEC  00 55 69 00 fb
CF35  CF35  55  cf  LDA  00 55 69 00 fb
CF37  CF37  55  cf  ASL  55 55 69 00 fb
CF38  CF38  55  cf  BCS  aa 55 69 00 fb
CF3A  CF3A  55  cf  BEQ  aa 55 69 00 fb
CF3C  CF3C  55  cf  BPL  aa 55 69 00 fb
CF3E  CF3E  55  cf  BVS  aa 55 69 00 fb
CF40  CF40  aa  cf  CMP  aa 55 69 00 fb
CF42  CF42  aa  cf  BNE  aa 55 69 00 fb
CF44  CF44  4b  cf  JMP  aa 55 69 00 fb
CF4B  CF4B  4b  cf  NOP  aa 55 69 00 fb
CF4C  CF4C  01  cf  BIT  aa 55 69 00 fb
CF4E  CF4E  01  cf  SEC  aa 55 69 00 fb
CF4F  CF4F  01  cf  LDA  aa 55 69 00 fb
CF51  CF51  01  cf  ROR  01 55 69 00 fb
CF52  CF52  01  cf  BCC  80 55 69 00 fb
CF54  CF54  01  cf  BEQ  80 55 69 00 fb
CF56  CF56  01  cf  BPL  80 55 69 00 fb
CF58  CF58  01  cf  BVC  80 55 69 00 fb
CF5A  CF5A  80  cf  CMP  80 55 69 00 fb
CF5C  CF5C  80  cf  BNE  80 55 69 00 fb
CF5E  CF5E  80  cf  CLV  80 55 69 00 fb
CF5F  CF5F  80  cf  CLC  80 55 69 00 fb
CF60  CF60  55  cf  LDA  80 55 69 00 fb
CF62  CF62  55  cf  ROR  55 55 69 00 fb
CF63  CF63  55  cf  BCC  2a 55 69 00 fb
CF65  CF65  55  cf  BEQ  2a 55 69 00 fb
CF67  CF67  55  cf  BMI  2a 55 69 00 fb
CF69  CF69  55  cf  BVS  2a 55 69 00 fb
CF6B  CF6B  2a  cf  CMP  2a 55 69 00 fb
CF6D  CF6D  2a  cf  BNE  2a 55 69 00 fb
CF6F  CF6F  76  cf  JMP  2a 55 69 00 fb
CF76  CF76  76  cf  NOP  2a 55 69 00 fb
CF77  CF77  01  cf  BIT  2a 55 69 00 fb
CF79  CF79  01  cf  SEC  2a 55 69 00 fb
CF7A  CF7A  80  cf  LDA  2a 55 69 00 fb
CF7C  CF7C  80  cf  ROL  80 55 69 00 fb
CF7D  CF7D  80  cf  BCC  01 55 69 00 fb
CF7F  CF7F  80  cf  BEQ  01 55 69 00 fb
CF81  CF81  80  cf  BMI  01 55 69 00 fb
CF83  CF83  80  cf  BVC  01 55 69 00 fb
CF85  CF85  01  cf  CMP  01 55 69 00 fb
CF87  CF87  01  cf  BNE  01 55 69 00 fb
CF89  CF89  01  cf  CLV  01 55 69 00 fb
CF8A  CF8A  01  cf  CLC  01 55 69 00 fb
CF8B  CF8B  55  cf  LDA  01 55 69 00 fb
CF8D  CF8D  55  cf  ROL  55 55 69 00 fb
CF8E  CF8E  55  cf  BCS  aa 55 69 00 fb
CF90  CF90  55  cf  BEQ  aa 55 69 00 fb
CF92  CF92  55  cf  BPL  aa 55 69 00 fb
CF94  CF94  55  cf  BVS  aa 55 69 00 fb
CF96  CF96  aa  cf  CMP  aa 55 69 00 fb
CF98  CF98  aa  cf  BNE  aa 55 69 00 fb
CF9A  CF9A  a1  cf  JMP  aa 55 69 00 fb
CFA1  CFA1  a1  cf  RTS  aa 55 69 00 fb
C60F  C60F  a2  cf  JSR  aa 55 69 00 fd
CFA2  CFA2  00  cf  LDA  aa 55 69 00 fb
CFA4  CFA4  ff  07  STA  46 55 69 00 fb
CFA7  CFA7  00  07  LDA  46 55 69 00 fb
CFA9  CFA9  80  07  STA  00 55 69 00 fb
CFAB  CFAB  02  07  LDA  00 55 69 00 fb
CFAD  CFAD  81  07  STA  02 55 69 00 fb
CFAF  CFAF  ff  07  LDA  02 55 69 00 fb
CFB1  CFB1  01  07  STA  ff 55 69 00 fb
CFB3  CFB3  00  07  LDA  ff 55 69 00 fb
CFB5  CFB5  82  07  STA  00 55 69 00 fb
CFB7  CFB7  03  07  LDA  00 55 69 00 fb
CFB9  CFB9  83  07  STA  03 55 69 00 fb
CFBB  CFBB  84  07  STA  03 55 69 00 fb
CFBD  CFBD  00  07  LDA  03 55 69 00 fb
CFBF  CFBF  ff  07  STA  00 55 69 00 fb
CFC1  CFC1  04  07  LDA  00 55 69 00 fb
CFC3  CFC3  00  07  STA  04 55 69 00 fb
CFC5  CFC5  5a  07  LDA  04 55 69 00 fb
CFC7  CFC7  00  02  STA  5a 55 69 00 fb
CFCA  CFCA  5b  02  LDA  5a 55 69 00 fb
CFCC  CFCC  00  03  STA  5b 55 69 00 fb
CFCF  CFCF  5c  03  LDA  5b 55 69 00 fb
CFD1  CFD1  03  03  STA  5c 55 69 00 fb
CFD4  CFD4  5d  03  LDA  5c 55 69 00 fb
CFD6  CFD6  00  04  STA  5d 55 69 00 fb
CFD9  CFD9  00  04  LDX  5d 55 69 00 fb
CFDB  CFDB  80  04  LDA  5d 00 69 00 fb
CFDD  CFDD  5a  04  CMP  5a 00 69 00 fb
CFDF  CFDF  5a  04  BNE  5a 00 69 00 fb
CFE1  CFE1  5a  04  INX  5a 00 69 00 fb
CFE2  CFE2  5a  04  INX  5a 01 69 00 fb
CFE3  CFE3  80  04  LDA  5a 02 69 00 fb
CFE5  CFE5  5b  04  CMP  5b 02 69 00 fb
CFE7  CFE7  5b  04  BNE  5b 02 69 00 fb
CFE9  CFE9  5b  04  INX  5b 02 69 00 fb
CFEA  CFEA  80  04  LDA  5b 03 69 00 fb
CFEC  CFEC  5c  04  CMP  5c 03 69 00 fb
CFEE  CFEE  5c  04  BNE  5c 03 69 00 fb
CFF0  CFF0  00  04  LDX  5c 03 69 00 fb
CFF2  CFF2  ff  04  LDA  5c 00 69 00 fb
CFF4  CFF4  5d  04  CMP  5d 00 69 00 fb
CFF6  CFF6  5d  04  BNE  5d 00 69 00 fb
CFF8  CFF8  81  04  LDX  5d 00 69 00 fb
CFFA  CFFA  ff  04  LDA  5d 81 69 00 fb
CFFC  CFFC  5a  04  CMP  5a 81 69 00 fb
CFFE  CFFE  5a  04  BEQ  5a 81 69 00 fb
D005  D005  aa  04  LDA  5a 81 69 00 fb
D007  D007  00  04  LDX  aa 81 69 00 fb
D009  D009  80  04  STA  aa 00 69 00 fb
D00B  D00B  80  04  INX  aa 00 69 00 fb
D00C  D00C  80  04  INX  aa 01 69 00 fb
D00D  D00D  ab  04  LDA  aa 02 69 00 fb
D00F  D00F  80  04  STA  ab 02 69 00 fb
D011  D011  80  04  INX  ab 02 69 00 fb
D012  D012  ac  04  LDA  ab 03 69 00 fb
D014  D014  80  04  STA  ac 03 69 00 fb
D016  D016  00  04  LDX  ac 03 69 00 fb
D018  D018  ad  04  LDA  ac 00 69 00 fb
D01A  D01A  ff  04  STA  ad 00 69 00 fb
D01C  D01C  00  02  LDA  ad 00 69 00 fb
D01F  D01F  aa  02  CMP  aa 00 69 00 fb
D021  D021  aa  02  BNE  aa 00 69 00 fb
D023  D023  00  03  LDA  aa 00 69 00 fb
D026  D026  ab  03  CMP  ab 00 69 00 fb
D028  D028  ab  03  BNE  ab 00 69 00 fb
D02A  D02A  03  03  LDA  ab 00 69 00 fb
D02D  D02D  ac  03  CMP  ac 00 69 00 fb
D02F  D02F  ac  03  BNE  ac 00 69 00 fb
D031  D031  00  04  LDA  ac 00 69 00 fb
D034  D034  ad  04  CMP  ad 00 69 00 fb
D036  D036  ad  04  BEQ  ad 00 69 00 fb
D03D  D03D  ff  07  LDA  ad 00 69 00 fb
D040  D040  00  07  STA  46 00 69 00 fb
D042  D042  00  07  LDA  46 00 69 00 fb
D044  D044  00  03  STA  00 00 69 00 fb
D047  D047  aa  03  LDA  00 00 69 00 fb
D049  D049  00  02  STA  aa 00 69 00 fb
D04C  D04C  00  02  LDX  aa 00 69 00 fb
D04E  D04E  5a  02  LDY  aa 00 69 00 fb
D050  D050  b6  f7  JSR  aa 00 5a 00 fb
F7B6  F7B6  b6  f7  CLC  aa 00 5a 00 f9
F7B7  F7B7  ff  f7  LDA  aa 00 5a 00 f9
F7B9  F7B9  01  f7  STA  ff 00 5a 00 f9
F7BB  F7BB  01  f7  BIT  ff 00 5a 00 f9
F7BD  F7BD  55  f7  LDA  ff 00 5a 00 f9
F7BF  F7BF  55  f7  RTS  55 00 5a 00 f9
D053  D053  80  f7  ORA  55 00 5a 00 fb
D055  D055  c0  f7  JSR  ff 00 5a 00 fb
F7C0  F7C0  c0  f7  BCS  ff 00 5a 00 f9
F7C2  F7C2  c0  f7  BPL  ff 00 5a 00 f9
F7C4  F7C4  ff  f7  CMP  ff 00 5a 00 f9
F7C6  F7C6  ff  f7  BNE  ff 00 5a 00 f9
F7C8  F7C8  ff  f7  BVC  ff 00 5a 00 f9
F7CA  F7CA  ff  f7  RTS  ff 00 5a 00 f9
D058  D058  ff  f7  INY  ff 00 5a 00 fb
D059  D059  ce  f7  JSR  ff 00 5b 00 fb
F7CE  F7CE  ce  f7  SEC  ff 00 5b 00 f9
F7CF  F7CF  ce  f7  CLV  ff 00 5b 00 f9
F7D0  F7D0  00  f7  LDA  ff 00 5b 00 f9
F7D2  F7D2  00  f7  RTS  00 00 5b 00 f9
D05C  D05C  82  f7  ORA  00 00 5b 00 fb
D05E  D05E  d3  f7  JSR  00 00 5b 00 fb
F7D3  F7D3  d3  f7  BNE  00 00 5b 00 f9
F7D5  F7D5  d3  f7  BVS  00 00 5b 00 f9
F7D7  F7D7  d3  f7  BCC  00 00 5b 00 f9
F7D9  F7D9  d3  f7  BMI  00 00 5b 00 f9
F7DB  F7DB  d3  f7  RTS  00 00 5b 00 f9
D061  D061  d3  f7  INY  00 00 5b 00 fb
D062  D062  df  f7  JSR  00 00 5c 00 fb
F7DF  F7DF  df  f7  CLC  00 00 5c 00 f9
F7E0  F7E0  01  f7  BIT  00 00 5c 00 f9
F7E2  F7E2  55  f7  LDA  00 00 5c 00 f9
F7E4  F7E4  55  f7  RTS  55 00 5c 00 f9
D065  D065  80  f7  AND  55 00 5c 00 fb
D067  D067  e5  f7  JSR  00 00 5c 00 fb
F7E5  F7E5  e5  f7  BNE  00 00 5c 00 f9
F7E7  F7E7  e5  f7  BVC  00 00 5c 00 f9
F7E9  F7E9  e5  f7  BCS  00 00 5c 00 f9
F7EB  F7EB  e5  f7  BMI  00 00 5c 00 f9
F7ED  F7ED  e5  f7  RTS  00 00 5c 00 f9
D06A  D06A  e5  f7  INY  00 00 5c 00 fb
D06B  D06B  ef  f7  LDA  00 00 5d 00 fb
D06D  D06D  00  03  STA  ef 00 5d 00 fb
D070  D070  f1  f7  JSR  ef 00 5d 00 fb
F7F1  F7F1  f1  f7  SEC  ef 00 5d 00 f9
F7F2  F7F2  f1  f7  CLV  ef 00 5d 00 f9
F7F3  F7F3  f8  f7  LDA  ef 00 5d 00 f9
F7F5  F7F5  f8  f7  RTS  f8 00 5d 00 f9
D073  D073  82  f7  AND  f8 00 5d 00 fb
D075  D075  f6  f7  JSR  e8 00 5d 00 fb
F7F6  F7F6  f6  f7  BCC  e8 00 5d 00 f9
F7F8  F7F8  f6  f7  BPL  e8 00 5d 00 f9
F7FA  F7FA  e8  f7  CMP  e8 00 5d 00 f9
F7FC  F7FC  e8  f7  BNE  e8 00 5d 00 f9
F7FE  F7FE  e8  f7  BVS  e8 00 5d 00 f9
F800  F800  e8  f7  RTS  e8 00 5d 00 f9
D078  D078  e8  f7  INY  e8 00 5d 00 fb
D079  D079  04  f8  JSR  e8 00 5e 00 fb
F804  F804  04  f8  CLC  e8 00 5e 00 f9
F805  F805  01  f8  BIT  e8 00 5e 00 f9
F807  F807  5f  f8  LDA  e8 00 5e 00 f9
F809  F809  5f  f8  RTS  5f 00 5e 00 f9
D07C  D07C  80  f8  EOR  5f 00 5e 00 fb
D07E  D07E  0a  f8  JSR  f5 00 5e 00 fb
F80A  F80A  0a  f8  BCS  f5 00 5e 00 f9
F80C  F80C  0a  f8  BPL  f5 00 5e 00 f9
F80E  F80E  f5  f8  CMP  f5 00 5e 00 f9
F810  F810  f5  f8  BNE  f5 00 5e 00 f9
F812  F812  f5  f8  BVC  f5 00 5e 00 f9
F814  F814  f5  f8  RTS  f5 00 5e 00 f9
D081  D081  f5  f8  INY  f5 00 5e 00 fb
D082  D082  70  f8  LDA  f5 00 5f 00 fb
D084  D084  00  03  STA  70 00 5f 00 fb
D087  D087  18  f8  JSR  70 00 5f 00 fb
F818  F818  18  f8  SEC  70 00 5f 00 f9
F819  F819  18  f8  CLV  70 00 5f 00 f9
F81A  F81A  70  f8  LDA  70 00 5f 00 f9
F81C  F81C  70  f8  RTS  70 00 5f 00 f9
D08A  D08A  82  f8  EOR  70 00 5f 00 fb
D08C  D08C  1d  f8  JSR  00 00 5f 00 fb
F81D  F81D  1d  f8  BNE  00 00 5f 00 f9
F81F  F81F  1d  f8  BVS  00 00 5f 00 f9
F821  F821  1d  f8  BCC  00 00 5f 00 f9
F823  F823  1d  f8  BMI  00 00 5f 00 f9
F825  F825  1d  f8  RTS  00 00 5f 00 f9
D08F  D08F  1d  f8  INY  00 00 5f 00 fb
D090  D090  69  f8  LDA  00 00 60 00 fb
D092  D092  00  02  STA  69 00 60 00 fb
D095  D095  29  f8  JSR  69 00 60 00 fb
F829  F829  29  f8  CLC  69 00 60 00 f9
F82A  F82A  01  f8  BIT  69 00 60 00 f9
F82C  F82C  00  f8  LDA  69 00 60 00 f9
F82E  F82E  00  f8  RTS  00 00 60 00 f9
D098  D098  80  f8  ADC  00 00 60 00 fb
D09A  D09A  2f  f8  JSR  69 00 60 00 fb
F82F  F82F  2f  f8  BMI  69 00 60 00 f9
F831  F831  2f  f8  BCS  69 00 60 00 f9
F833  F833  69  f8  CMP  69 00 60 00 f9
F835  F835  69  f8  BNE  69 00 60 00 f9
F837  F837  69  f8  BVS  69 00 60 00 f9
F839  F839  69  f8  RTS  69 00 60 00 f9
D09D  D09D  69  f8  INY  69 00 60 00 fb
D09E  D09E  3d  f8  JSR  69 00 61 00 fb
F83D  F83D  3d  f8  SEC  69 00 61 00 f9
F83E  F83E  01  f8  BIT  69 00 61 00 f9
F840  F840  00  f8  LDA  69 00 61 00 f9
F842  F842  00  f8  RTS  00 00 61 00 f9
D0A1  D0A1  80  f8  ADC  00 00 61 00 fb
D0A3  D0A3  43  f8  JSR  6a 00 61 00 fb
F843  F843  43  f8  BMI  6a 00 61 00 f9
F845  F845  43  f8  BCS  6a 00 61 00 f9
F847  F847  6a  f8  CMP  6a 00 61 00 f9
F849  F849  6a  f8  BNE  6a 00 61 00 f9
F84B  F84B  6a  f8  BVS  6a 00 61 00 f9
F84D  F84D  6a  f8  RTS  6a 00 61 00 f9
D0A6  D0A6  6a  f8  INY  6a 00 61 00 fb
D0A7  D0A7  7f  f8  LDA  6a 00 62 00 fb
D0A9  D0A9  00  02  STA  7f 00 62 00 fb
D0AC  D0AC  51  f8  JSR  7f 00 62 00 fb
F851  F851  51  f8  SEC  7f 00 62 00 f9
F852  F852  51  f8  CLV  7f 00 62 00 f9
F853  F853  7f  f8  LDA  7f 00 62 00 f9
F855  F855  7f  f8  RTS  7f 00 62 00 f9
D0AF  D0AF  80  f8  ADC  7f 00 62 00 fb
D0B1  D0B1  56  f8  JSR  ff 00 62 00 fb
F856  F856  56  f8  BPL  ff 00 62 00 f9
F858  F858  56  f8  BCS  ff 00 62 00 f9
F85A  F85A  ff  f8  CMP  ff 00 62 00 f9
F85C  F85C  ff  f8  BNE  ff 00 62 00 f9
F85E  F85E  ff  f8  BVC  ff 00 62 00 f9
F860  F860  ff  f8  RTS  ff 00 62 00 f9
D0B4  D0B4  ff  f8  INY  ff 00 62 00 fb
D0B5  D0B5  80  f8  LDA  ff 00 63 00 fb
D0B7  D0B7  00  02  STA  80 00 63 00 fb
D0BA  D0BA  64  f8  JSR  80 00 63 00 fb
F864  F864  64  f8  CLC  80 00 63 00 f9
F865  F865  01  f8  BIT  80 00 63 00 f9
F867  F867  7f  f8  LDA  80 00 63 00 f9
F869  F869  7f  f8  RTS  7f 00 63 00 f9
D0BD  D0BD  80  f8  ADC  7f 00 63 00 fb
D0BF  D0BF  6a  f8  JSR  ff 00 63 00 fb
F86A  F86A  6a  f8  BPL  ff 00 63 00 f9
F86C  F86C  6a  f8  BCS  ff 00 63 00 f9
F86E  F86E  ff  f8  CMP  ff 00 63 00 f9
F870  F870  ff  f8  BNE  ff 00 63 00 f9
F872  F872  ff  f8  BVS  ff 00 63 00 f9
F874  F874  ff  f8  RTS  ff 00 63 00 f9
D0C2  D0C2  ff  f8  INY  ff 00 63 00 fb
D0C3  D0C3  78  f8  JSR  ff 00 64 00 fb
F878  F878  78  f8  SEC  ff 00 64 00 f9
F879  F879  78  f8  CLV  ff 00 64 00 f9
F87A  F87A  7f  f8  LDA  ff 00 64 00 f9
F87C  F87C  7f  f8  RTS  7f 00 64 00 f9
D0C6  D0C6  80  f8  ADC  7f 00 64 00 fb
D0C8  D0C8  7d  f8  JSR  00 00 64 00 fb
F87D  F87D  7d  f8  BNE  00 00 64 00 f9
F87F  F87F  7d  f8  BMI  00 00 64 00 f9
F881  F881  7d  f8  BVS  00 00 64 00 f9
F883  F883  7d  f8  BCC  00 00 64 00 f9
F885  F885  7d  f8  RTS  00 00 64 00 f9
D0CB  D0CB  7d  f8  INY  00 00 64 00 fb
D0CC  D0CC  40  f8  LDA  00 00 65 00 fb
D0CE  D0CE  00  02  STA  40 00 65 00 fb
D0D1  D0D1  89  f8  JSR  40 00 65 00 fb
F889  F889  01  f8  BIT  40 00 65 00 f9
F88B  F88B  40  f8  LDA  40 00 65 00 f9
F88D  F88D  40  f8  RTS  40 00 65 00 f9
D0D4  D0D4  80  f8  CMP  40 00 65 00 fb
D0D6  D0D6  8e  f8  JSR  40 00 65 00 fb
F88E  F88E  8e  f8  BMI  40 00 65 00 f9
F890  F890  8e  f8  BCC  40 00 65 00 f9
F892  F892  8e  f8  BNE  40 00 65 00 f9
F894  F894  8e  f8  BVC  40 00 65 00 f9
F896  F896  8e  f8  RTS  40 00 65 00 f9
D0D9  D0D9  8e  f8  INY  40 00 65 00 fb
D0DA  D0DA  8e  f8  PHA  40 00 66 00 fb
D0DB  D0DB  3f  f8  LDA  40 00 66 00 fa
D0DD  D0DD  00  02  STA  3f 00 66 00 fa
D0E0  D0E0  00  02  PLA  3f 00 66 00 fa
D0E1  D0E1  9a  f8  JSR  40 00 66 00 fb
F89A  F89A  9a  f8  CLV  40 00 66 00 f9
F89B  F89B  9a  f8  RTS  40 00 66 00 f9
D0E4  D0E4  80  f8  CMP  40 00 66 00 fb
D0E6  D0E6  9c  f8  JSR  40 00 66 00 fb
F89C  F89C  9c  f8  BEQ  40 00 66 00 f9
F89E  F89E  9c  f8  BMI  40 00 66 00 f9
F8A0  F8A0  9c  f8  BCC  40 00 66 00 f9
F8A2  F8A2  9c  f8  BVS  40 00 66 00 f9
F8A4  F8A4  9c  f8  RTS  40 00 66 00 f9
D0E9  D0E9  9c  f8  INY  40 00 66 00 fb
D0EA  D0EA  9c  f8  PHA  40 00 67 00 fb
D0EB  D0EB  41  f8  LDA  40 00 67 00 fa
D0ED  D0ED  00  02  STA  41 00 67 00 fa
D0F0  D0F0  00  02  PLA  41 00 67 00 fa
D0F1  D0F1  80  02  CMP  40 00 67 00 fb
D0F3  D0F3  a8  f8  JSR  40 00 67 00 fb
F8A8  F8A8  a8  f8  BEQ  40 00 67 00 f9
F8AA  F8AA  a8  f8  BPL  40 00 67 00 f9
F8AC  F8AC  a8  f8  BPL  40 00 67 00 f9
F8AE  F8AE  a8  f8  RTS  40 00 67 00 f9
D0F6  D0F6  a8  f8  INY  40 00 67 00 fb
D0F7  D0F7  a8  f8  PHA  40 00 68 00 fb
D0F8  D0F8  00  f8  LDA  40 00 68 00 fa
D0FA  D0FA  00  02  STA  00 00 68 00 fa
D0FD  D0FD  00  02  PLA  00 00 68 00 fa
D0FE  D0FE  b2  f8  JSR  40 00 68 00 fb
F8B2  F8B2  80  f8  LDA  40 00 68 00 f9
F8B4  F8B4  80  f8  RTS  80 00 68 00 f9
D101  D101  80  f8  CMP  80 00 68 00 fb
D103  D103  b5  f8  JSR  80 00 68 00 fb
F8B5  F8B5  b5  f8  BEQ  80 00 68 00 f9
F8B7  F8B7  b5  f8  BPL  80 00 68 00 f9
F8B9  F8B9  b5  f8  BCC  80 00 68 00 f9
F8BB  F8BB  b5  f8  RTS  80 00 68 00 f9
D106  D106  b5  f8  INY  80 00 68 00 fb
D107  D107  b5  f8  PHA  80 00 69 00 fb
D108  D108  80  f8  LDA  80 00 69 00 fa
D10A  D10A  00  02  STA  80 00 69 00 fa
D10D  D10D  00  02  PLA  80 00 69 00 fa
D10E  D10E  80  02  CMP  80 00 69 00 fb
D110  D110  bf  f8  JSR  80 00 69 00 fb
F8BF  F8BF  bf  f8  BNE  80 00 69 00 f9
F8C1  F8C1  bf  f8  BMI  80 00 69 00 f9
F8C3  F8C3  bf  f8  BCC  80 00 69 00 f9
F8C5  F8C5  bf  f8  RTS  80 00 69 00 f9
D113  D113  bf  f8  INY  80 00 69 00 fb
D114  D114  bf  f8  PHA  80 00 6a 00 fb
D115  D115  81  f8  LDA  80 00 6a 00 fa
D117  D117  00  02  STA  81 00 6a 00 fa
D11A  D11A  00  02  PLA  81 00 6a 00 fa
D11B  D11B  80  02  CMP  80 00 6a 00 fb
D11D  D11D  c9  f8  JSR  80 00 6a 00 fb
F8C9  F8C9  c9  f8  BCS  80 00 6a 00 f9
F8CB  F8CB  c9  f8  BEQ  80 00 6a 00 f9
F8CD  F8CD  c9  f8  BPL  80 00 6a 00 f9
F8CF  F8CF  c9  f8  RTS  80 00 6a 00 f9
D120  D120  c9  f8  INY  80 00 6a 00 fb
D121  D121  c9  f8  PHA  80 00 6b 00 fb
D122  D122  7f  f8  LDA  80 00 6b 00 fa
D124  D124  00  02  STA  7f 00 6b 00 fa
D127  D127  00  02  PLA  7f 00 6b 00 fa
D128  D128  80  02  CMP  80 00 6b 00 fb
D12A  D12A  d3  f8  JSR  80 00 6b 00 fb
F8D3  F8D3  d3  f8  BCC  80 00 6b 00 f9
F8D5  F8D5  d3  f8  BEQ  80 00 6b 00 f9
F8D7  F8D7  d3  f8  BMI  80 00 6b 00 f9
F8D9  F8D9  d3  f8  RTS  80 00 6b 00 f9
D12D  D12D  d3  f8  INY  80 00 6b 00 fb
D12E  D12E  40  f8  LDA  80 00 6c 00 fb
D130  D130  00  02  STA  40 00 6c 00 fb
D133  D133  31  f9  JSR  40 00 6c 00 fb
F931  F931  01  f9  BIT  40 00 6c 00 f9
F933  F933  40  f9  LDA  40 00 6c 00 f9
F935  F935  40  f9  SEC  40 00 6c 00 f9
F936  F936  40  f9  RTS  40 00 6c 00 f9
D136  D136  80  f9  SBC  40 00 6c 00 fb
D138  D138  37  f9  JSR  00 00 6c 00 fb
F937  F937  37  f9  BMI  00 00 6c 00 f9
F939  F939  37  f9  BCC  00 00 6c 00 f9
F944  F944  00  f9  STY  00 00 6c 00 f9
F946  F946  00  f9  RTS  00 00 6c 00 f9
D13B  D13B  00  f9  INY  00 00 6c 00 fb
D13C  D13C  3f  f9  LDA  00 00 6d 00 fb
D13E  D13E  00  02  STA  3f 00 6d 00 fb
D141  D141  47  f9  JSR  3f 00 6d 00 fb
F947  F947  47  f9  CLV  3f 00 6d 00 f9
F948  F948  47  f9  SEC  3f 00 6d 00 f9
F949  F949  40  f9  LDA  3f 00 6d 00 f9
F94B  F94B  40  f9  RTS  40 00 6d 00 f9
D144  D144  80  f9  SBC  40 00 6d 00 fb
D146  D146  4c  f9  JSR  01 00 6d 00 fb
F94C  F94C  4c  f9  BEQ  01 00 6d 00 f9
F94E  F94E  4c  f9  BMI  01 00 6d 00 f9
F950  F950  4c  f9  BCC  01 00 6d 00 f9
F959  F959  00  f9  STY  01 00 6d 00 f9
F95B  F95B  00  f9  RTS  01 00 6d 00 f9
D149  D149  00  f9  INY  01 00 6d 00 fb
D14A  D14A  41  f9  LDA  01 00 6e 00 fb
D14C  D14C  00  02  STA  41 00 6e 00 fb
D14F  D14F  5c  f9  JSR  41 00 6e 00 fb
F95C  F95C  40  f9  LDA  41 00 6e 00 f9
F95E  F95E  40  f9  SEC  40 00 6e 00 f9
F95F  F95F  01  f9  BIT  40 00 6e 00 f9
F961  F961  01  f9  RTS  40 00 6e 00 f9
D152  D152  80  f9  SBC  40 00 6e 00 fb
D154  D154  62  f9  JSR  ff 00 6e 00 fb
F962  F962  62  f9  BCS  ff 00 6e 00 f9
F964  F964  62  f9  BEQ  ff 00 6e 00 f9
F966  F966  62  f9  BPL  ff 00 6e 00 f9
F968  F968  62  f9  BVS  ff 00 6e 00 f9
F96A  F96A  ff  f9  CMP  ff 00 6e 00 f9
F96C  F96C  ff  f9  BNE  ff 00 6e 00 f9
F96E  F96E  ff  f9  RTS  ff 00 6e 00 f9
D157  D157  ff  f9  INY  ff 00 6e 00 fb
D158  D158  00  f9  LDA  ff 00 6f 00 fb
D15A  D15A  00  02  STA  00 00 6f 00 fb
D15D  D15D  72  f9  JSR  00 00 6f 00 fb
F972  F972  72  f9  CLC  00 00 6f 00 f9
F973  F973  80  f9  LDA  00 00 6f 00 f9
F975  F975  80  f9  RTS  80 00 6f 00 f9
D160  D160  80  f9  SBC  80 00 6f 00 fb
D162  D162  76  f9  JSR  7f 00 6f 00 fb
F976  F976  76  f9  BCC  7f 00 6f 00 f9
F97D  F97D  00  f9  STY  7f 00 6f 00 f9
F97F  F97F  00  f9  RTS  7f 00 6f 00 f9
D165  D165  00  f9  INY  7f 00 6f 00 fb
D166  D166  7f  f9  LDA  7f 00 70 00 fb
D168  D168  00  02  STA  7f 00 70 00 fb
D16B  D16B  80  f9  JSR  7f 00 70 00 fb
F980  F980  80  f9  SEC  7f 00 70 00 f9
F981  F981  81  f9  LDA  7f 00 70 00 f9
F983  F983  81  f9  RTS  81 00 70 00 f9
D16E  D16E  80  f9  SBC  81 00 70 00 fb
D170  D170  84  f9  JSR  02 00 70 00 fb
F984  F984  84  f9  BVC  02 00 70 00 f9
F986  F986  84  f9  BCC  02 00 70 00 f9
F98D  F98D  00  f9  STY  02 00 70 00 f9
F98F  F98F  00  f9  RTS  02 00 70 00 f9
D173  D173  00  f9  RTS  02 00 70 00 fb
C612  C612  74  d1  JSR  02 00 70 00 fd
D174  D174  55  d1  LDA  02 00 70 00 fb
D176  D176  78  d1  STA  55 00 70 00 fb
D178  D178  ff  d1  LDA  55 00 70 00 fb
D17A  D17A  01  d1  STA  ff 00 70 00 fb
D17C  D17C  01  d1  BIT  ff 00 70 00 fb
D17E  D17E  11  d1  LDY  ff 00 70 00 fb
D180  D180  23  d1  LDX  ff 00 11 00 fb
D182  D182  00  d1  LDA  ff 23 11 00 fb
D184  D184  78  d1  LDA  00 23 11 00 fb
D186  D186  78  d1  BEQ  55 23 11 00 fb
D188  D188  78  d1  BMI  55 23 11 00 fb
D18A  D18A  55  d1  CMP  55 23 11 00 fb
D18C  D18C  55  d1  BNE  55 23 11 00 fb
D18E  D18E  11  d1  CPY  55 23 11 00 fb
D190  D190  11  d1  BNE  55 23 11 00 fb
D192  D192  23  d1  CPX  55 23 11 00 fb
D194  D194  23  d1  BVC  55 23 11 00 fb
D196  D196  23  d1  BEQ  55 23 11 00 fb
D19C  D19C  46  d1  LDA  55 23 11 00 fb
D19E  D19E  01  d1  BIT  46 23 11 00 fb
D1A0  D1A0  78  d1  STA  46 23 11 00 fb
D1A2  D1A2  78  d1  BEQ  46 23 11 00 fb
D1A4  D1A4  78  d1  BPL  46 23 11 00 fb
D1A6  D1A6  78  d1  BVC  46 23 11 00 fb
D1A8  D1A8  78  d1  LDA  46 23 11 00 fb
D1AA  D1AA  46  d1  CMP  46 23 11 00 fb
D1AC  D1AC  46  d1  BEQ  46 23 11 00 fb
D1B2  D1B2  55  d1  LDA  46 23 11 00 fb
D1B4  D1B4  78  d1  STA  55 23 11 00 fb
D1B6  D1B6  01  d1  BIT  55 23 11 00 fb
D1B8  D1B8  11  d1  LDA  55 23 11 00 fb
D1BA  D1BA  23  d1  LDX  11 23 11 00 fb
D1BC  D1BC  00  d1  LDY  11 23 11 00 fb
D1BE  D1BE  78  d1  LDY  11 23 00 00 fb
D1C0  D1C0  78  d1  BEQ  11 23 55 00 fb
D1C2  D1C2  78  d1  BMI  11 23 55 00 fb
D1C4  D1C4  55  d1  CPY  11 23 55 00 fb
D1C6  D1C6  55  d1  BNE  11 23 55 00 fb
D1C8  D1C8  11  d1  CMP  11 23 55 00 fb
D1CA  D1CA  11  d1  BNE  11 23 55 00 fb
D1CC  D1CC  23  d1  CPX  11 23 55 00 fb
D1CE  D1CE  23  d1  BVC  11 23 55 00 fb
D1D0  D1D0  23  d1  BEQ  11 23 55 00 fb
D1D6  D1D6  46  d1  LDY  11 23 55 00 fb
D1D8  D1D8  01  d1  BIT  11 23 46 00 fb
D1DA  D1DA  78  d1  STY  11 23 46 00 fb
D1DC  D1DC  78  d1  BEQ  11 23 46 00 fb
D1DE  D1DE  78  d1  BPL  11 23 46 00 fb
D1E0  D1E0  78  d1  BVC  11 23 46 00 fb
D1E2  D1E2  78  d1  LDY  11 23 46 00 fb
D1E4  D1E4  46  d1  CPY  11 23 46 00 fb
D1E6  D1E6  46  d1  BEQ  11 23 46 00 fb
D1EC  D1EC  01  d1  BIT  11 23 46 00 fb
D1EE  D1EE  55  d1  LDA  11 23 46 00 fb
D1F0  D1F0  78  d1  STA  55 23 46 00 fb
D1F2  D1F2  11  d1  LDY  55 23 46 00 fb
D1F4  D1F4  23  d1  LDA  55 23 11 00 fb
D1F6  D1F6  00  d1  LDX  23 23 11 00 fb
D1F8  D1F8  78  d1  LDX  23 00 11 00 fb
D1FA  D1FA  78  d1  BEQ  23 55 11 00 fb
D1FC  D1FC  78  d1  BMI  23 55 11 00 fb
D1FE  D1FE  55  d1  CPX  23 55 11 00 fb
D200  D200  55  d1  BNE  23 55 11 00 fb
D202  D202  11  d1  CPY  23 55 11 00 fb
D204  D204  11  d1  BNE  23 55 11 00 fb
D206  D206  23  d1  CMP  23 55 11 00 fb
D208  D208  23  d1  BVC  23 55 11 00 fb
D20A  D20A  23  d1  BEQ  23 55 11 00 fb
D210  D210  46  d1  LDX  23 55 11 00 fb
D212  D212  01  d1  BIT  23 46 11 00 fb
D214  D214  78  d1  STX  23 46 11 00 fb
D216  D216  78  d1  BEQ  23 46 11 00 fb
D218  D218  78  d1  BPL  23 46 11 00 fb
D21A  D21A  78  d1  BVC  23 46 11 00 fb
D21C  D21C  78  d1  LDX  23 46 11 00 fb
D21E  D21E  46  d1  CPX  23 46 11 00 fb
D220  D220  46  d1  BEQ  23 46 11 00 fb
D226  D226  c0  d1  LDA  23 46 11 00 fb
D228  D228  78  d1  STA  c0 46 11 00 fb
D22A  D22A  33  d1  LDX  c0 46 11 00 fb
D22C  D22C  88  d1  LDY  c0 33 11 00 fb
D22E  D22E  05  d1  LDA  c0 33 88 00 fb
D230  D230  78  d1  BIT  05 33 88 00 fb
D232  D232  78  d1  BPL  05 33 88 00 fb
D234  D234  78  d1  BVC  05 33 88 00 fb
D236  D236  78  d1  BNE  05 33 88 00 fb
D238  D238  05  d1  CMP  05 33 88 00 fb
D23A  D23A  05  d1  BNE  05 33 88 00 fb
D23C  D23C  33  d1  CPX  05 33 88 00 fb
D23E  D23E  33  d1  BNE  05 33 88 00 fb
D240  D240  88  d1  CPY  05 33 88 00 fb
D242  D242  88  d1  BEQ  05 33 88 00 fb
D248  D248  03  d1  LDA  05 33 88 00 fb
D24A  D24A  78  d1  STA  03 33 88 00 fb
D24C  D24C  01  d1  LDA  03 33 88 00 fb
D24E  D24E  78  d1  BIT  01 33 88 00 fb
D250  D250  78  d1  BMI  01 33 88 00 fb
D252  D252  78  d1  BVS  01 33 88 00 fb
D254  D254  78  d1  BEQ  01 33 88 00 fb
D256  D256  01  d1  CMP  01 33 88 00 fb
D258  D258  01  d1  BEQ  01 33 88 00 fb
D25E  D25E  7e  d1  LDY  01 33 88 00 fb
D260  D260  aa  d1  LDA  01 33 7e 00 fb
D262  D262  78  d1  STA  aa 33 7e 00 fb
D264  D264  b6  f7  JSR  aa 33 7e 00 fb
F7B6  F7B6  b6  f7  CLC  aa 33 7e 00 f9
F7B7  F7B7  ff  f7  LDA  aa 33 7e 00 f9
F7B9  F7B9  01  f7  STA  ff 33 7e 00 f9
F7BB  F7BB  01  f7  BIT  ff 33 7e 00 f9
F7BD  F7BD  55  f7  LDA  ff 33 7e 00 f9
F7BF  F7BF  55  f7  RTS  55 33 7e 00 f9
D267  D267  78  f7  ORA  55 33 7e 00 fb
D269  D269  c0  f7  JSR  ff 33 7e 00 fb
F7C0  F7C0  c0  f7  BCS  ff 33 7e 00 f9
F7C2  F7C2  c0  f7  BPL  ff 33 7e 00 f9
F7C4  F7C4  ff  f7  CMP  ff 33 7e 00 f9
F7C6  F7C6  ff  f7  BNE  ff 33 7e 00 f9
F7C8  F7C8  ff  f7  BVC  ff 33 7e 00 f9
F7CA  F7CA  ff  f7  RTS  ff 33 7e 00 f9
D26C  D26C  ff  f7  INY  ff 33 7e 00 fb
D26D  D26D  00  f7  LDA  ff 33 7f 00 fb
D26F  D26F  78  f7  STA  00 33 7f 00 fb
D271  D271  ce  f7  JSR  00 33 7f 00 fb
F7CE  F7CE  ce  f7  SEC  00 33 7f 00 f9
F7CF  F7CF  ce  f7  CLV  00 33 7f 00 f9
F7D0  F7D0  00  f7  LDA  00 33 7f 00 f9
F7D2  F7D2  00  f7  RTS  00 33 7f 00 f9
D274  D274  78  f7  ORA  00 33 7f 00 fb
D276  D276  d3  f7  JSR  00 33 7f 00 fb
F7D3  F7D3  d3  f7  BNE  00 33 7f 00 f9
F7D5  F7D5  d3  f7  BVS  00 33 7f 00 f9
F7D7  F7D7  d3  f7  BCC  00 33 7f 00 f9
F7D9  F7D9  d3  f7  BMI  00 33 7f 00 f9
F7DB  F7DB  d3  f7  RTS  00 33 7f 00 f9
D279  D279  d3  f7  INY  00 33 7f 00 fb
D27A  D27A  aa  f7  LDA  00 33 80 00 fb
D27C  D27C  78  f7  STA  aa 33 80 00 fb
D27E  D27E  df  f7  JSR  aa 33 80 00 fb
F7DF  F7DF  df  f7  CLC  aa 33 80 00 f9
F7E0  F7E0  01  f7  BIT  aa 33 80 00 f9
F7E2  F7E2  55  f7  LDA  aa 33 80 00 f9
F7E4  F7E4  55  f7  RTS  55 33 80 00 f9
D281  D281  78  f7  AND  55 33 80 00 fb
D283  D283  e5  f7  JSR  00 33 80 00 fb
F7E5  F7E5  e5  f7  BNE  00 33 80 00 f9
F7E7  F7E7  e5  f7  BVC  00 33 80 00 f9
F7E9  F7E9  e5  f7  BCS  00 33 80 00 f9
F7EB  F7EB  e5  f7  BMI  00 33 80 00 f9
F7ED  F7ED  e5  f7  RTS  00 33 80 00 f9
D286  D286  e5  f7  INY  00 33 80 00 fb
D287  D287  ef  f7  LDA  00 33 81 00 fb
D289  D289  78  f7  STA  ef 33 81 00 fb
D28B  D28B  f1  f7  JSR  ef 33 81 00 fb
F7F1  F7F1  f1  f7  SEC  ef 33 81 00 f9
F7F2  F7F2  f1  f7  CLV  ef 33 81 00 f9
F7F3  F7F3  f8  f7  LDA  ef 33 81 00 f9
F7F5  F7F5  f8  f7  RTS  f8 33 81 00 f9
D28E  D28E  78  f7  AND  f8 33 81 00 fb
D290  D290  f6  f7  JSR  e8 33 81 00 fb
F7F6  F7F6  f6  f7  BCC  e8 33 81 00 f9
F7F8  F7F8  f6  f7  BPL  e8 33 81 00 f9
F7FA  F7FA  e8  f7  CMP  e8 33 81 00 f9
F7FC  F7FC  e8  f7  BNE  e8 33 81 00 f9
F7FE  F7FE  e8  f7  BVS  e8 33 81 00 f9
F800  F800  e8  f7  RTS  e8 33 81 00 f9
D293  D293  e8  f7  INY  e8 33 81 00 fb
D294  D294  aa  f7  LDA  e8 33 82 00 fb
D296  D296  78  f7  STA  aa 33 82 00 fb
D298  D298  04  f8  JSR  aa 33 82 00 fb
F804  F804  04  f8  CLC  aa 33 82 00 f9
F805  F805  01  f8  BIT  aa 33 82 00 f9
F807  F807  5f  f8  LDA  aa 33 82 00 f9
F809  F809  5f  f8  RTS  5f 33 82 00 f9
D29B  D29B  78  f8  EOR  5f 33 82 00 fb
D29D  D29D  0a  f8  JSR  f5 33 82 00 fb
F80A  F80A  0a  f8  BCS  f5 33 82 00 f9
F80C  F80C  0a  f8  BPL  f5 33 82 00 f9
F80E  F80E  f5  f8  CMP  f5 33 82 00 f9
F810  F810  f5  f8  BNE  f5 33 82 00 f9
F812  F812  f5  f8  BVC  f5 33 82 00 f9
F814  F814  f5  f8  RTS  f5 33 82 00 f9
D2A0  D2A0  f5  f8  INY  f5 33 82 00 fb
D2A1  D2A1  70  f8  LDA  f5 33 83 00 fb
D2A3  D2A3  78  f8  STA  70 33 83 00 fb
D2A5  D2A5  18  f8  JSR  70 33 83 00 fb
F818  F818  18  f8  SEC  70 33 83 00 f9
F819  F819  18  f8  CLV  70 33 83 00 f9
F81A  F81A  70  f8  LDA  70 33 83 00 f9
F81C  F81C  70  f8  RTS  70 33 83 00 f9
D2A8  D2A8  78  f8  EOR  70 33 83 00 fb
D2AA  D2AA  1d  f8  JSR  00 33 83 00 fb
F81D  F81D  1d  f8  BNE  00 33 83 00 f9
F81F  F81F  1d  f8  BVS  00 33 83 00 f9
F821  F821  1d  f8  BCC  00 33 83 00 f9
F823  F823  1d  f8  BMI  00 33 83 00 f9
F825  F825  1d  f8  RTS  00 33 83 00 f9
D2AD  D2AD  1d  f8  INY  00 33 83 00 fb
D2AE  D2AE  69  f8  LDA  00 33 84 00 fb
D2B0  D2B0  78  f8  STA  69 33 84 00 fb
D2B2  D2B2  29  f8  JSR  69 33 84 00 fb
F829  F829  29  f8  CLC  69 33 84 00 f9
F82A  F82A  01  f8  BIT  69 33 84 00 f9
F82C  F82C  00  f8  LDA  69 33 84 00 f9
F82E  F82E  00  f8  RTS  00 33 84 00 f9
D2B5  D2B5  78  f8  ADC  00 33 84 00 fb
D2B7  D2B7  2f  f8  JSR  69 33 84 00 fb
F82F  F82F  2f  f8  BMI  69 33 84 00 f9
F831  F831  2f  f8  BCS  69 33 84 00 f9
F833  F833  69  f8  CMP  69 33 84 00 f9
F835  F835  69  f8  BNE  69 33 84 00 f9
F837  F837  69  f8  BVS  69 33 84 00 f9
F839  F839  69  f8  RTS  69 33 84 00 f9
D2BA  D2BA  69  f8  INY  69 33 84 00 fb
D2BB  D2BB  3d  f8  JSR  69 33 85 00 fb
F83D  F83D  3d  f8  SEC  69 33 85 00 f9
F83E  F83E  01  f8  BIT  69 33 85 00 f9
F840  F840  00  f8  LDA  69 33 85 00 f9
F842  F842  00  f8  RTS  00 33 85 00 f9
D2BE  D2BE  78  f8  ADC  00 33 85 00 fb
D2C0  D2C0  43  f8  JSR  6a 33 85 00 fb
F843  F843  43  f8  BMI  6a 33 85 00 f9
F845  F845  43  f8  BCS  6a 33 85 00 f9
F847  F847  6a  f8  CMP  6a 33 85 00 f9
F849  F849  6a  f8  BNE  6a 33 85 00 f9
F84B  F84B  6a  f8  BVS  6a 33 85 00 f9
F84D  F84D  6a  f8  RTS  6a 33 85 00 f9
D2C3  D2C3  6a  f8  INY  6a 33 85 00 fb
D2C4  D2C4  7f  f8  LDA  6a 33 86 00 fb
D2C6  D2C6  78  f8  STA  7f 33 86 00 fb
D2C8  D2C8  51  f8  JSR  7f 33 86 00 fb
F851  F851  51  f8  SEC  7f 33 86 00 f9
F852  F852  51  f8  CLV  7f 33 86 00 f9
F853  F853  7f  f8  LDA  7f 33 86 00 f9
F855  F855  7f  f8  RTS  7f 33 86 00 f9
D2CB  D2CB  78  f8  ADC  7f 33 86 00 fb
D2CD  D2CD  56  f8  JSR  ff 33 86 00 fb
F856  F856  56  f8  BPL  ff 33 86 00 f9
F858  F858  56  f8  BCS  ff 33 86 00 f9
F85A  F85A  ff  f8  CMP  ff 33 86 00 f9
F85C  F85C  ff  f8  BNE  ff 33 86 00 f9
F85E  F85E  ff  f8  BVC  ff 33 86 00 f9
F860  F860  ff  f8  RTS  ff 33 86 00 f9
D2D0  D2D0  ff  f8  INY  ff 33 86 00 fb
D2D1  D2D1  80  f8  LDA  ff 33 87 00 fb
D2D3  D2D3  78  f8  STA  80 33 87 00 fb
D2D5  D2D5  64  f8  JSR  80 33 87 00 fb
F864  F864  64  f8  CLC  80 33 87 00 f9
F865  F865  01  f8  BIT  80 33 87 00 f9
F867  F867  7f  f8  LDA  80 33 87 00 f9
F869  F869  7f  f8  RTS  7f 33 87 00 f9
D2D8  D2D8  78  f8  ADC  7f 33 87 00 fb
D2DA  D2DA  6a  f8  JSR  ff 33 87 00 fb
F86A  F86A  6a  f8  BPL  ff 33 87 00 f9
F86C  F86C  6a  f8  BCS  ff 33 87 00 f9
F86E  F86E  ff  f8  CMP  ff 33 87 00 f9
F870  F870  ff  f8  BNE  ff 33 87 00 f9
F872  F872  ff  f8  BVS  ff 33 87 00 f9
F874  F874  ff  f8  RTS  ff 33 87 00 f9
D2DD  D2DD  ff  f8  INY  ff 33 87 00 fb
D2DE  D2DE  78  f8  JSR  ff 33 88 00 fb
F878  F878  78  f8  SEC  ff 33 88 00 f9
F879  F879  78  f8  CLV  ff 33 88 00 f9
F87A  F87A  7f  f8  LDA  ff 33 88 00 f9
F87C  F87C  7f  f8  RTS  7f 33 88 00 f9
D2E1  D2E1  78  f8  ADC  7f 33 88 00 fb
D2E3  D2E3  7d  f8  JSR  00 33 88 00 fb
F87D  F87D  7d  f8  BNE  00 33 88 00 f9
F87F  F87F  7d  f8  BMI  00 33 88 00 f9
F881  F881  7d  f8  BVS  00 33 88 00 f9
F883  F883  7d  f8  BCC  00 33 88 00 f9
F885  F885  7d  f8  RTS  00 33 88 00 f9
D2E6  D2E6  7d  f8  INY  00 33 88 00 fb
D2E7  D2E7  40  f8  LDA  00 33 89 00 fb
D2E9  D2E9  78  f8  STA  40 33 89 00 fb
D2EB  D2EB  89  f8  JSR  40 33 89 00 fb
F889  F889  01  f8  BIT  40 33 89 00 f9
F88B  F88B  40  f8  LDA  40 33 89 00 f9
F88D  F88D  40  f8  RTS  40 33 89 00 f9
D2EE  D2EE  78  f8  CMP  40 33 89 00 fb
D2F0  D2F0  8e  f8  JSR  40 33 89 00 fb
F88E  F88E  8e  f8  BMI  40 33 89 00 f9
F890  F890  8e  f8  BCC  40 33 89 00 f9
F892  F892  8e  f8  BNE  40 33 89 00 f9
F894  F894  8e  f8  BVC  40 33 89 00 f9
F896  F896  8e  f8  RTS  40 33 89 00 f9
D2F3  D2F3  8e  f8  INY  40 33 89 00 fb
D2F4  D2F4  8e  f8  PHA  40 33 8a 00 fb
D2F5  D2F5  3f  f8  LDA  40 33 8a 00 fa
D2F7  D2F7  78  f8  STA  3f 33 8a 00 fa
D2F9  D2F9  78  f8  PLA  3f 33 8a 00 fa
D2FA  D2FA  9a  f8  JSR  40 33 8a 00 fb
F89A  F89A  9a  f8  CLV  40 33 8a 00 f9
F89B  F89B  9a  f8  RTS  40 33 8a 00 f9
D2FD  D2FD  78  f8  CMP  40 33 8a 00 fb
D2FF  D2FF  9c  f8  JSR  40 33 8a 00 fb
F89C  F89C  9c  f8  BEQ  40 33 8a 00 f9
F89E  F89E  9c  f8  BMI  40 33 8a 00 f9
F8A0  F8A0  9c  f8  BCC  40 33 8a 00 f9
F8A2  F8A2  9c  f8  BVS  40 33 8a 00 f9
F8A4  F8A4  9c  f8  RTS  40 33 8a 00 f9
D302  D302  9c  f8  INY  40 33 8a 00 fb
D303  D303  9c  f8  PHA  40 33 8b 00 fb
D304  D304  41  f8  LDA  40 33 8b 00 fa
D306  D306  78  f8  STA  41 33 8b 00 fa
D308  D308  78  f8  PLA  41 33 8b 00 fa
D309  D309  78  f8  CMP  40 33 8b 00 fb
D30B  D30B  a8  f8  JSR  40 33 8b 00 fb
F8A8  F8A8  a8  f8  BEQ  40 33 8b 00 f9
F8AA  F8AA  a8  f8  BPL  40 33 8b 00 f9
F8AC  F8AC  a8  f8  BPL  40 33 8b 00 f9
F8AE  F8AE  a8  f8  RTS  40 33 8b 00 f9
D30E  D30E  a8  f8  INY  40 33 8b 00 fb
D30F  D30F  a8  f8  PHA  40 33 8c 00 fb
D310  D310  00  f8  LDA  40 33 8c 00 fa
D312  D312  78  f8  STA  00 33 8c 00 fa
D314  D314  78  f8  PLA  00 33 8c 00 fa
D315  D315  b2  f8  JSR  40 33 8c 00 fb
F8B2  F8B2  80  f8  LDA  40 33 8c 00 f9
F8B4  F8B4  80  f8  RTS  80 33 8c 00 f9
D318  D318  78  f8  CMP  80 33 8c 00 fb
D31A  D31A  b5  f8  JSR  80 33 8c 00 fb
F8B5  F8B5  b5  f8  BEQ  80 33 8c 00 f9
F8B7  F8B7  b5  f8  BPL  80 33 8c 00 f9
F8B9  F8B9  b5  f8  BCC  80 33 8c 00 f9
F8BB  F8BB  b5  f8  RTS  80 33 8c 00 f9
D31D  D31D  b5  f8  INY  80 33 8c 00 fb
D31E  D31E  b5  f8  PHA  80 33 8d 00 fb
D31F  D31F  80  f8  LDA  80 33 8d 00 fa
D321  D321  78  f8  STA  80 33 8d 00 fa
D323  D323  78  f8  PLA  80 33 8d 00 fa
D324  D324  78  f8  CMP  80 33 8d 00 fb
D326  D326  bf  f8  JSR  80 33 8d 00 fb
F8BF  F8BF  bf  f8  BNE  80 33 8d 00 f9
F8C1  F8C1  bf  f8  BMI  80 33 8d 00 f9
F8C3  F8C3  bf  f8  BCC  80 33 8d 00 f9
F8C5  F8C5  bf  f8  RTS  80 33 8d 00 f9
D329  D329  bf  f8  INY  80 33 8d 00 fb
D32A  D32A  bf  f8  PHA  80 33 8e 00 fb
D32B  D32B  81  f8  LDA  80 33 8e 00 fa
D32D  D32D  78  f8  STA  81 33 8e 00 fa
D32F  D32F  78  f8  PLA  81 33 8e 00 fa
D330  D330  78  f8  CMP  80 33 8e 00 fb
D332  D332  c9  f8  JSR  80 33 8e 00 fb
F8C9  F8C9  c9  f8  BCS  80 33 8e 00 f9
F8CB  F8CB  c9  f8  BEQ  80 33 8e 00 f9
F8CD  F8CD  c9  f8  BPL  80 33 8e 00 f9
F8CF  F8CF  c9  f8  RTS  80 33 8e 00 f9
D335  D335  c9  f8  INY  80 33 8e 00 fb
D336  D336  c9  f8  PHA  80 33 8f 00 fb
D337  D337  7f  f8  LDA  80 33 8f 00 fa
D339  D339  78  f8  STA  7f 33 8f 00 fa
D33B  D33B  78  f8  PLA  7f 33 8f 00 fa
D33C  D33C  78  f8  CMP  80 33 8f 00 fb
D33E  D33E  d3  f8  JSR  80 33 8f 00 fb
F8D3  F8D3  d3  f8  BCC  80 33 8f 00 f9
F8D5  F8D5  d3  f8  BEQ  80 33 8f 00 f9
F8D7  F8D7  d3  f8  BMI  80 33 8f 00 f9
F8D9  F8D9  d3  f8  RTS  80 33 8f 00 f9
D341  D341  d3  f8  INY  80 33 8f 00 fb
D342  D342  40  f8  LDA  80 33 90 00 fb
D344  D344  78  f8  STA  40 33 90 00 fb
D346  D346  31  f9  JSR  40 33 90 00 fb
F931  F931  01  f9  BIT  40 33 90 00 f9
F933  F933  40  f9  LDA  40 33 90 00 f9
F935  F935  40  f9  SEC  40 33 90 00 f9
F936  F936  40  f9  RTS  40 33 90 00 f9
D349  D349  78  f9  SBC  40 33 90 00 fb
D34B  D34B  37  f9  JSR  00 33 90 00 fb
F937  F937  37  f9  BMI  00 33 90 00 f9
F939  F939  37  f9  BCC  00 33 90 00 f9
F944  F944  00  f9  STY  00 33 90 00 f9
F946  F946  00  f9  RTS  00 33 90 00 f9
D34E  D34E  00  f9  INY  00 33 90 00 fb
D34F  D34F  3f  f9  LDA  00 33 91 00 fb
D351  D351  78  f9  STA  3f 33 91 00 fb
D353  D353  47  f9  JSR  3f 33 91 00 fb
F947  F947  47  f9  CLV  3f 33 91 00 f9
F948  F948  47  f9  SEC  3f 33 91 00 f9
F949  F949  40  f9  LDA  3f 33 91 00 f9
F94B  F94B  40  f9  RTS  40 33 91 00 f9
D356  D356  78  f9  SBC  40 33 91 00 fb
D358  D358  4c  f9  JSR  01 33 91 00 fb
F94C  F94C  4c  f9  BEQ  01 33 91 00 f9
F94E  F94E  4c  f9  BMI  01 33 91 00 f9
F950  F950  4c  f9  BCC  01 33 91 00 f9
F959  F959  00  f9  STY  01 33 91 00 f9
F95B  F95B  00  f9  RTS  01 33 91 00 f9
D35B  D35B  00  f9  INY  01 33 91 00 fb
D35C  D35C  41  f9  LDA  01 33 92 00 fb
D35E  D35E  78  f9  STA  41 33 92 00 fb
D360  D360  5c  f9  JSR  41 33 92 00 fb
F95C  F95C  40  f9  LDA  41 33 92 00 f9
F95E  F95E  40  f9  SEC  40 33 92 00 f9
F95F  F95F  01  f9  BIT  40 33 92 00 f9
F961  F961  01  f9  RTS  40 33 92 00 f9
D363  D363  78  f9  SBC  40 33 92 00 fb
D365  D365  62  f9  JSR  ff 33 92 00 fb
F962  F962  62  f9  BCS  ff 33 92 00 f9
F964  F964  62  f9  BEQ  ff 33 92 00 f9
F966  F966  62  f9  BPL  ff 33 92 00 f9
F968  F968  62  f9  BVS  ff 33 92 00 f9
F96A  F96A  ff  f9  CMP  ff 33 92 00 f9
F96C  F96C  ff  f9  BNE  ff 33 92 00 f9
F96E  F96E  ff  f9  RTS  ff 33 92 00 f9
D368  D368  ff  f9  INY  ff 33 92 00 fb
D369  D369  00  f9  LDA  ff 33 93 00 fb
D36B  D36B  78  f9  STA  00 33 93 00 fb
D36D  D36D  72  f9  JSR  00 33 93 00 fb
F972  F972  72  f9  CLC  00 33 93 00 f9
F973  F973  80  f9  LDA  00 33 93 00 f9
F975  F975  80  f9  RTS  80 33 93 00 f9
D370  D370  78  f9  SBC  80 33 93 00 fb
D372  D372  76  f9  JSR  7f 33 93 00 fb
F976  F976  76  f9  BCC  7f 33 93 00 f9
F97D  F97D  00  f9  STY  7f 33 93 00 f9
F97F  F97F  00  f9  RTS  7f 33 93 00 f9
D375  D375  00  f9  INY  7f 33 93 00 fb
D376  D376  7f  f9  LDA  7f 33 94 00 fb
D378  D378  78  f9  STA  7f 33 94 00 fb
D37A  D37A  80  f9  JSR  7f 33 94 00 fb
F980  F980  80  f9  SEC  7f 33 94 00 f9
F981  F981  81  f9  LDA  7f 33 94 00 f9
F983  F983  81  f9  RTS  81 33 94 00 f9
D37D  D37D  78  f9  SBC  81 33 94 00 fb
D37F  D37F  84  f9  JSR  02 33 94 00 fb
F984  F984  84  f9  BVC  02 33 94 00 f9
F986  F986  84  f9  BCC  02 33 94 00 f9
F98D  F98D  00  f9  STY  02 33 94 00 f9
F98F  F98F  00  f9  RTS  02 33 94 00 f9
D382  D382  00  f9  INY  02 33 94 00 fb
D383  D383  40  f9  LDA  02 33 95 00 fb
D385  D385  78  f9  STA  40 33 95 00 fb
D387  D387  89  f8  JSR  40 33 95 00 fb
F889  F889  01  f8  BIT  40 33 95 00 f9
F88B  F88B  40  f8  LDA  40 33 95 00 f9
F88D  F88D  40  f8  RTS  40 33 95 00 f9
D38A  D38A  40  f8  TAX  40 33 95 00 fb
D38B  D38B  78  f8  CPX  40 40 95 00 fb
D38D  D38D  8e  f8  JSR  40 40 95 00 fb
F88E  F88E  8e  f8  BMI  40 40 95 00 f9
F890  F890  8e  f8  BCC  40 40 95 00 f9
F892  F892  8e  f8  BNE  40 40 95 00 f9
F894  F894  8e  f8  BVC  40 40 95 00 f9
F896  F896  8e  f8  RTS  40 40 95 00 f9
D390  D390  8e  f8  INY  40 40 95 00 fb
D391  D391  3f  f8  LDA  40 40 96 00 fb
D393  D393  78  f8  STA  3f 40 96 00 fb
D395  D395  9a  f8  JSR  3f 40 96 00 fb
F89A  F89A  9a  f8  CLV  3f 40 96 00 f9
F89B  F89B  9a  f8  RTS  3f 40 96 00 f9
D398  D398  78  f8  CPX  3f 40 96 00 fb
D39A  D39A  9c  f8  JSR  3f 40 96 00 fb
F89C  F89C  9c  f8  BEQ  3f 40 96 00 f9
F89E  F89E  9c  f8  BMI  3f 40 96 00 f9
F8A0  F8A0  9c  f8  BCC  3f 40 96 00 f9
F8A2  F8A2  9c  f8  BVS  3f 40 96 00 f9
F8A4  F8A4  9c  f8  RTS  3f 40 96 00 f9
D39D  D39D  9c  f8  INY  3f 40 96 00 fb
D39E  D39E  41  f8  LDA  3f 40 97 00 fb
D3A0  D3A0  78  f8  STA  41 40 97 00 fb
D3A2  D3A2  78  f8  CPX  41 40 97 00 fb
D3A4  D3A4  a8  f8  JSR  41 40 97 00 fb
F8A8  F8A8  a8  f8  BEQ  41 40 97 00 f9
F8AA  F8AA  a8  f8  BPL  41 40 97 00 f9
F8AC  F8AC  a8  f8  BPL  41 40 97 00 f9
F8AE  F8AE  a8  f8  RTS  41 40 97 00 f9
D3A7  D3A7  a8  f8  INY  41 40 97 00 fb
D3A8  D3A8  00  f8  LDA  41 40 98 00 fb
D3AA  D3AA  78  f8  STA  00 40 98 00 fb
D3AC  D3AC  b2  f8  JSR  00 40 98 00 fb
F8B2  F8B2  80  f8  LDA  00 40 98 00 f9
F8B4  F8B4  80  f8  RTS  80 40 98 00 f9
D3AF  D3AF  80  f8  TAX  80 40 98 00 fb
D3B0  D3B0  78  f8  CPX  80 80 98 00 fb
D3B2  D3B2  b5  f8  JSR  80 80 98 00 fb
F8B5  F8B5  b5  f8  BEQ  80 80 98 00 f9
F8B7  F8B7  b5  f8  BPL  80 80 98 00 f9
F8B9  F8B9  b5  f8  BCC  80 80 98 00 f9
F8BB  F8BB  b5  f8  RTS  80 80 98 00 f9
D3B5  D3B5  b5  f8  INY  80 80 98 00 fb
D3B6  D3B6  80  f8  LDA  80 80 99 00 fb
D3B8  D3B8  78  f8  STA  80 80 99 00 fb
D3BA  D3BA  78  f8  CPX  80 80 99 00 fb
D3BC  D3BC  bf  f8  JSR  80 80 99 00 fb
F8BF  F8BF  bf  f8  BNE  80 80 99 00 f9
F8C1  F8C1  bf  f8  BMI  80 80 99 00 f9
F8C3  F8C3  bf  f8  BCC  80 80 99 00 f9
F8C5  F8C5  bf  f8  RTS  80 80 99 00 f9
D3BF  D3BF  bf  f8  INY  80 80 99 00 fb
D3C0  D3C0  81  f8  LDA  80 80 9a 00 fb
D3C2  D3C2  78  f8  STA  81 80 9a 00 fb
D3C4  D3C4  78  f8  CPX  81 80 9a 00 fb
D3C6  D3C6  c9  f8  JSR  81 80 9a 00 fb
F8C9  F8C9  c9  f8  BCS  81 80 9a 00 f9
F8CB  F8CB  c9  f8  BEQ  81 80 9a 00 f9
F8CD  F8CD  c9  f8  BPL  81 80 9a 00 f9
F8CF  F8CF  c9  f8  RTS  81 80 9a 00 f9
D3C9  D3C9  c9  f8  INY  81 80 9a 00 fb
D3CA  D3CA  7f  f8  LDA  81 80 9b 00 fb
D3CC  D3CC  78  f8  STA  7f 80 9b 00 fb
D3CE  D3CE  78  f8  CPX  7f 80 9b 00 fb
D3D0  D3D0  d3  f8  JSR  7f 80 9b 00 fb
F8D3  F8D3  d3  f8  BCC  7f 80 9b 00 f9
F8D5  F8D5  d3  f8  BEQ  7f 80 9b 00 f9
F8D7  F8D7  d3  f8  BMI  7f 80 9b 00 f9
F8D9  F8D9  d3  f8  RTS  7f 80 9b 00 f9
D3D3  D3D3  d3  f8  INY  7f 80 9b 00 fb
D3D4  D3D4  d3  f8  TYA  7f 80 9c 00 fb
D3D5  D3D5  d3  f8  TAX  9c 80 9c 00 fb
D3D6  D3D6  40  f8  LDA  9c 9c 9c 00 fb
D3D8  D3D8  78  f8  STA  40 9c 9c 00 fb
D3DA  D3DA  dd  f8  JSR  40 9c 9c 00 fb
F8DD  F8DD  01  f8  BIT  40 9c 9c 00 f9
F8DF  F8DF  40  f8  LDY  40 9c 9c 00 f9
F8E1  F8E1  40  f8  RTS  40 9c 40 00 f9
D3DD  D3DD  78  f8  CPY  40 9c 40 00 fb
D3DF  D3DF  e2  f8  JSR  40 9c 40 00 fb
F8E2  F8E2  e2  f8  BMI  40 9c 40 00 f9
F8E4  F8E4  e2  f8  BCC  40 9c 40 00 f9
F8E6  F8E6  e2  f8  BNE  40 9c 40 00 f9
F8E8  F8E8  e2  f8  BVC  40 9c 40 00 f9
F8EA  F8EA  e2  f8  RTS  40 9c 40 00 f9
D3E2  D3E2  e2  f8  INX  40 9c 40 00 fb
D3E3  D3E3  3f  f8  LDA  40 9d 40 00 fb
D3E5  D3E5  78  f8  STA  3f 9d 40 00 fb
D3E7  D3E7  ee  f8  JSR  3f 9d 40 00 fb
F8EE  F8EE  ee  f8  CLV  3f 9d 40 00 f9
F8EF  F8EF  ee  f8  RTS  3f 9d 40 00 f9
D3EA  D3EA  78  f8  CPY  3f 9d 40 00 fb
D3EC  D3EC  f0  f8  JSR  3f 9d 40 00 fb
F8F0  F8F0  f0  f8  BEQ  3f 9d 40 00 f9
F8F2  F8F2  f0  f8  BMI  3f 9d 40 00 f9
F8F4  F8F4  f0  f8  BCC  3f 9d 40 00 f9
F8F6  F8F6  f0  f8  BVS  3f 9d 40 00 f9
F8F8  F8F8  f0  f8  RTS  3f 9d 40 00 f9
D3EF  D3EF  f0  f8  INX  3f 9d 40 00 fb
D3F0  D3F0  41  f8  LDA  3f 9e 40 00 fb
D3F2  D3F2  78  f8  STA  41 9e 40 00 fb
D3F4  D3F4  78  f8  CPY  41 9e 40 00 fb
D3F6  D3F6  fc  f8  JSR  41 9e 40 00 fb
F8FC  F8FC  fc  f8  BEQ  41 9e 40 00 f9
F8FE  F8FE  fc  f8  BPL  41 9e 40 00 f9
F900  F900  fc  f8  BPL  41 9e 40 00 f9
F902  F902  fc  f8  RTS  41 9e 40 00 f9
D3F9  D3F9  fc  f8  INX  41 9e 40 00 fb
D3FA  D3FA  00  f8  LDA  41 9f 40 00 fb
D3FC  D3FC  78  f8  STA  00 9f 40 00 fb
D3FE  D3FE  06  f9  JSR  00 9f 40 00 fb
F906  F906  80  f9  LDY  00 9f 40 00 f9
F908  F908  80  f9  RTS  00 9f 80 00 f9
D401  D401  78  f9  CPY  00 9f 80 00 fb
D403  D403  09  f9  JSR  00 9f 80 00 fb
F909  F909  09  f9  BEQ  00 9f 80 00 f9
F90B  F90B  09  f9  BPL  00 9f 80 00 f9
F90D  F90D  09  f9  BCC  00 9f 80 00 f9
F90F  F90F  09  f9  RTS  00 9f 80 00 f9
D406  D406  09  f9  INX  00 9f 80 00 fb
D407  D407  80  f9  LDA  00 a0 80 00 fb
D409  D409  78  f9  STA  80 a0 80 00 fb
D40B  D40B  78  f9  CPY  80 a0 80 00 fb
D40D  D40D  13  f9  JSR  80 a0 80 00 fb
F913  F913  13  f9  BNE  80 a0 80 00 f9
F915  F915  13  f9  BMI  80 a0 80 00 f9
F917  F917  13  f9  BCC  80 a0 80 00 f9
F919  F919  13  f9  RTS  80 a0 80 00 f9
D410  D410  13  f9  INX  80 a0 80 00 fb
D411  D411  81  f9  LDA  80 a1 80 00 fb
D413  D413  78  f9  STA  81 a1 80 00 fb
D415  D415  78  f9  CPY  81 a1 80 00 fb
D417  D417  1d  f9  JSR  81 a1 80 00 fb
F91D  F91D  1d  f9  BCS  81 a1 80 00 f9
F91F  F91F  1d  f9  BEQ  81 a1 80 00 f9
F921  F921  1d  f9  BPL  81 a1 80 00 f9
F923  F923  1d  f9  RTS  81 a1 80 00 f9
D41A  D41A  1d  f9  INX  81 a1 80 00 fb
D41B  D41B  7f  f9  LDA  81 a2 80 00 fb
D41D  D41D  78  f9  STA  7f a2 80 00 fb
D41F  D41F  78  f9  CPY  7f a2 80 00 fb
D421  D421  27  f9  JSR  7f a2 80 00 fb
F927  F927  27  f9  BCC  7f a2 80 00 f9
F929  F929  27  f9  BEQ  7f a2 80 00 f9
F92B  F92B  27  f9  BMI  7f a2 80 00 f9
F92D  F92D  27  f9  RTS  7f a2 80 00 f9
D424  D424  27  f9  INX  7f a2 80 00 fb
D425  D425  27  f9  TXA  7f a3 80 00 fb
D426  D426  27  f9  TAY  a3 a3 80 00 fb
D427  D427  90  f9  JSR  a3 a3 a3 00 fb
F990  F990  55  f9  LDX  a3 a3 a3 00 f9
F992  F992  ff  f9  LDA  a3 55 a3 00 f9
F994  F994  01  f9  STA  ff 55 a3 00 f9
F996  F996  01  f9  NOP  ff 55 a3 00 f9
F997  F997  01  f9  BIT  ff 55 a3 00 f9
F999  F999  01  f9  SEC  ff 55 a3 00 f9
F99A  F99A  01  f9  LDA  ff 55 a3 00 f9
F99C  F99C  01  f9  RTS  01 55 a3 00 f9
D42A  D42A  78  f9  STA  01 55 a3 00 fb
D42C  D42C  78  f9  LSR  01 55 a3 00 fb
D42E  D42E  78  f9  LDA  01 55 a3 00 fb
D430  D430  9d  f9  JSR  00 55 a3 00 fb
F99D  F99D  9d  f9  BCC  00 55 a3 00 f9
F99F  F99F  9d  f9  BNE  00 55 a3 00 f9
F9A1  F9A1  9d  f9  BMI  00 55 a3 00 f9
F9A3  F9A3  9d  f9  BVC  00 55 a3 00 f9
F9A5  F9A5  00  f9  CMP  00 55 a3 00 f9
F9A7  F9A7  00  f9  BNE  00 55 a3 00 f9
F9A9  F9A9  00  f9  CLV  00 55 a3 00 f9
F9AA  F9AA  aa  f9  LDA  00 55 a3 00 f9
F9AC  F9AC  aa  f9  RTS  aa 55 a3 00 f9
D433  D433  aa  f9  INY  aa 55 a3 00 fb
D434  D434  78  f9  STA  aa 55 a4 00 fb
D436  D436  78  f9  LSR  aa 55 a4 00 fb
D438  D438  78  f9  LDA  aa 55 a4 00 fb
D43A  D43A  ad  f9  JSR  55 55 a4 00 fb
F9AD  F9AD  ad  f9  BCS  55 55 a4 00 f9
F9AF  F9AF  ad  f9  BEQ  55 55 a4 00 f9
F9B1  F9B1  ad  f9  BMI  55 55 a4 00 f9
F9B3  F9B3  ad  f9  BVS  55 55 a4 00 f9
F9B5  F9B5  55  f9  CMP  55 55 a4 00 f9
F9B7  F9B7  55  f9  BNE  55 55 a4 00 f9
F9B9  F9B9  55  f9  RTS  55 55 a4 00 f9
D43D  D43D  55  f9  INY  55 55 a4 00 fb
D43E  D43E  bd  f9  JSR  55 55 a5 00 fb
F9BD  F9BD  01  f9  BIT  55 55 a5 00 f9
F9BF  F9BF  01  f9  SEC  55 55 a5 00 f9
F9C0  F9C0  80  f9  LDA  55 55 a5 00 f9
F9C2  F9C2  80  f9  RTS  80 55 a5 00 f9
D441  D441  78  f9  STA  80 55 a5 00 fb
D443  D443  78  f9  ASL  80 55 a5 00 fb
D445  D445  78  f9  LDA  80 55 a5 00 fb
D447  D447  c3  f9  JSR  00 55 a5 00 fb
F9C3  F9C3  c3  f9  BCC  00 55 a5 00 f9
F9C5  F9C5  c3  f9  BNE  00 55 a5 00 f9
F9C7  F9C7  c3  f9  BMI  00 55 a5 00 f9
F9C9  F9C9  c3  f9  BVC  00 55 a5 00 f9
F9CB  F9CB  00  f9  CMP  00 55 a5 00 f9
F9CD  F9CD  00  f9  BNE  00 55 a5 00 f9
F9CF  F9CF  00  f9  CLV  00 55 a5 00 f9
F9D0  F9D0  55  f9  LDA  00 55 a5 00 f9
F9D2  F9D2  55  f9  SEC  55 55 a5 00 f9
F9D3  F9D3  55  f9  RTS  55 55 a5 00 f9
D44A  D44A  55  f9  INY  55 55 a5 00 fb
D44B  D44B  78  f9  STA  55 55 a6 00 fb
D44D  D44D  78  f9  ASL  55 55 a6 00 fb
D44F  D44F  78  f9  LDA  55 55 a6 00 fb
D451  D451  d4  f9  JSR  aa 55 a6 00 fb
F9D4  F9D4  d4  f9  BCS  aa 55 a6 00 f9
F9D6  F9D6  d4  f9  BEQ  aa 55 a6 00 f9
F9D8  F9D8  d4  f9  BPL  aa 55 a6 00 f9
F9DA  F9DA  d4  f9  BVS  aa 55 a6 00 f9
F9DC  F9DC  aa  f9  CMP  aa 55 a6 00 f9
F9DE  F9DE  aa  f9  BNE  aa 55 a6 00 f9
F9E0  F9E0  aa  f9  RTS  aa 55 a6 00 f9
D454  D454  aa  f9  INY  aa 55 a6 00 fb
D455  D455  e4  f9  JSR  aa 55 a7 00 fb
F9E4  F9E4  01  f9  BIT  aa 55 a7 00 f9
F9E6  F9E6  01  f9  SEC  aa 55 a7 00 f9
F9E7  F9E7  01  f9  LDA  aa 55 a7 00 f9
F9E9  F9E9  01  f9  RTS  01 55 a7 00 f9
D458  D458  78  f9  STA  01 55 a7 00 fb
D45A  D45A  78  f9  ROR  01 55 a7 00 fb
D45C  D45C  78  f9  LDA  01 55 a7 00 fb
D45E  D45E  ea  f9  JSR  80 55 a7 00 fb
F9EA  F9EA  ea  f9  BCC  80 55 a7 00 f9
F9EC  F9EC  ea  f9  BEQ  80 55 a7 00 f9
F9EE  F9EE  ea  f9  BPL  80 55 a7 00 f9
F9F0  F9F0  ea  f9  BVC  80 55 a7 00 f9
F9F2  F9F2  80  f9  CMP  80 55 a7 00 f9
F9F4  F9F4  80  f9  BNE  80 55 a7 00 f9
F9F6  F9F6  80  f9  CLV  80 55 a7 00 f9
F9F7  F9F7  80  f9  CLC  80 55 a7 00 f9
F9F8  F9F8  55  f9  LDA  80 55 a7 00 f9
F9FA  F9FA  55  f9  RTS  55 55 a7 00 f9
D461  D461  55  f9  INY  55 55 a7 00 fb
D462  D462  78  f9  STA  55 55 a8 00 fb
D464  D464  78  f9  ROR  55 55 a8 00 fb
D466  D466  78  f9  LDA  55 55 a8 00 fb
D468  D468  fb  f9  JSR  2a 55 a8 00 fb
F9FB  F9FB  fb  f9  BCC  2a 55 a8 00 f9
F9FD  F9FD  fb  f9  BEQ  2a 55 a8 00 f9
F9FF  F9FF  fb  f9  BMI  2a 55 a8 00 f9
FA01  FA01  fb  f9  BVS  2a 55 a8 00 f9
FA03  FA03  2a  f9  CMP  2a 55 a8 00 f9
FA05  FA05  2a  f9  BNE  2a 55 a8 00 f9
FA07  FA07  2a  f9  RTS  2a 55 a8 00 f9
D46B  D46B  2a  f9  INY  2a 55 a8 00 fb
D46C  D46C  0a  fa  JSR  2a 55 a9 00 fb
FA0A  FA0A  01  fa  BIT  2a 55 a9 00 f9
FA0C  FA0C  01  fa  SEC  2a 55 a9 00 f9
FA0D  FA0D  80  fa  LDA  2a 55 a9 00 f9
FA0F  FA0F  80  fa  RTS  80 55 a9 00 f9
D46F  D46F  78  fa  STA  80 55 a9 00 fb
D471  D471  78  fa  ROL  80 55 a9 00 fb
D473  D473  78  fa  LDA  80 55 a9 00 fb
D475  D475  10  fa  JSR  01 55 a9 00 fb
FA10  FA10  10  fa  BCC  01 55 a9 00 f9
FA12  FA12  10  fa  BEQ  01 55 a9 00 f9
FA14  FA14  10  fa  BMI  01 55 a9 00 f9
FA16  FA16  10  fa  BVC  01 55 a9 00 f9
FA18  FA18  01  fa  CMP  01 55 a9 00 f9
FA1A  FA1A  01  fa  BNE  01 55 a9 00 f9
FA1C  FA1C  01  fa  CLV  01 55 a9 00 f9
FA1D  FA1D  01  fa  CLC  01 55 a9 00 f9
FA1E  FA1E  55  fa  LDA  01 55 a9 00 f9
FA20  FA20  55  fa  RTS  55 55 a9 00 f9
D478  D478  55  fa  INY  55 55 a9 00 fb
D479  D479  78  fa  STA  55 55 aa 00 fb
D47B  D47B  78  fa  ROL  55 55 aa 00 fb
D47D  D47D  78  fa  LDA  55 55 aa 00 fb
D47F  D47F  21  fa  JSR  aa 55 aa 00 fb
FA21  FA21  21  fa  BCS  aa 55 aa 00 f9
FA23  FA23  21  fa  BEQ  aa 55 aa 00 f9
FA25  FA25  21  fa  BPL  aa 55 aa 00 f9
FA27  FA27  21  fa  BVS  aa 55 aa 00 f9
FA29  FA29  aa  fa  CMP  aa 55 aa 00 f9
FA2B  FA2B  aa  fa  BNE  aa 55 aa 00 f9
FA2D  FA2D  aa  fa  RTS  aa 55 aa 00 f9
D482  D482  ff  fa  LDA  aa 55 aa 00 fb
D484  D484  78  fa  STA  ff 55 aa 00 fb
D486  D486  01  fa  STA  ff 55 aa 00 fb
D488  D488  01  fa  BIT  ff 55 aa 00 fb
D48A  D48A  01  fa  SEC  ff 55 aa 00 fb
D48B  D48B  78  fa  INC  ff 55 aa 00 fb
D48D  D48D  78  fa  BNE  ff 55 aa 00 fb
D48F  D48F  78  fa  BMI  ff 55 aa 00 fb
D491  D491  78  fa  BVC  ff 55 aa 00 fb
D493  D493  78  fa  BCC  ff 55 aa 00 fb
D495  D495  78  fa  LDA  ff 55 aa 00 fb
D497  D497  00  fa  CMP  00 55 aa 00 fb
D499  D499  00  fa  BEQ  00 55 aa 00 fb
D49F  D49F  7f  fa  LDA  00 55 aa 00 fb
D4A1  D4A1  78  fa  STA  7f 55 aa 00 fb
D4A3  D4A3  78  fa  CLV  7f 55 aa 00 fb
D4A4  D4A4  78  fa  CLC  7f 55 aa 00 fb
D4A5  D4A5  78  fa  INC  7f 55 aa 00 fb
D4A7  D4A7  78  fa  BEQ  7f 55 aa 00 fb
D4A9  D4A9  78  fa  BPL  7f 55 aa 00 fb
D4AB  D4AB  78  fa  BVS  7f 55 aa 00 fb
D4AD  D4AD  78  fa  BCS  7f 55 aa 00 fb
D4AF  D4AF  78  fa  LDA  7f 55 aa 00 fb
D4B1  D4B1  80  fa  CMP  80 55 aa 00 fb
D4B3  D4B3  80  fa  BEQ  80 55 aa 00 fb
D4B9  D4B9  00  fa  LDA  80 55 aa 00 fb
D4BB  D4BB  78  fa  STA  00 55 aa 00 fb
D4BD  D4BD  01  fa  BIT  00 55 aa 00 fb
D4BF  D4BF  01  fa  SEC  00 55 aa 00 fb
D4C0  D4C0  78  fa  DEC  00 55 aa 00 fb
D4C2  D4C2  78  fa  BEQ  00 55 aa 00 fb
D4C4  D4C4  78  fa  BPL  00 55 aa 00 fb
D4C6  D4C6  78  fa  BVC  00 55 aa 00 fb
D4C8  D4C8  78  fa  BCC  00 55 aa 00 fb
D4CA  D4CA  78  fa  LDA  00 55 aa 00 fb
D4CC  D4CC  ff  fa  CMP  ff 55 aa 00 fb
D4CE  D4CE  ff  fa  BEQ  ff 55 aa 00 fb
D4D4  D4D4  80  fa  LDA  ff 55 aa 00 fb
D4D6  D4D6  78  fa  STA  80 55 aa 00 fb
D4D8  D4D8  78  fa  CLV  80 55 aa 00 fb
D4D9  D4D9  78  fa  CLC  80 55 aa 00 fb
D4DA  D4DA  78  fa  DEC  80 55 aa 00 fb
D4DC  D4DC  78  fa  BEQ  80 55 aa 00 fb
D4DE  D4DE  78  fa  BMI  80 55 aa 00 fb
D4E0  D4E0  78  fa  BVS  80 55 aa 00 fb
D4E2  D4E2  78  fa  BCS  80 55 aa 00 fb
D4E4  D4E4  78  fa  LDA  80 55 aa 00 fb
D4E6  D4E6  7f  fa  CMP  7f 55 aa 00 fb
D4E8  D4E8  7f  fa  BEQ  7f 55 aa 00 fb
D4EE  D4EE  01  fa  LDA  7f 55 aa 00 fb
D4F0  D4F0  78  fa  STA  01 55 aa 00 fb
D4F2  D4F2  78  fa  DEC  01 55 aa 00 fb
D4F4  D4F4  78  fa  BEQ  01 55 aa 00 fb
D4FA  D4FA  78  fa  RTS  01 55 aa 00 fb
C615  C615  fb  d4  JSR  01 55 aa 00 fd
D4FB  D4FB  55  d4  LDA  01 55 aa 00 fb
D4FD  D4FD  78  06  STA  55 55 aa 00 fb
D500  D500  ff  06  LDA  55 55 aa 00 fb
D502  D502  01  06  STA  ff 55 aa 00 fb
D504  D504  01  06  BIT  ff 55 aa 00 fb
D506  D506  11  06  LDY  ff 55 aa 00 fb
D508  D508  23  06  LDX  ff 55 11 00 fb
D50A  D50A  00  06  LDA  ff 23 11 00 fb
D50C  D50C  78  06  LDA  00 23 11 00 fb
D50F  D50F  78  06  BEQ  55 23 11 00 fb
D511  D511  78  06  BMI  55 23 11 00 fb
D513  D513  55  06  CMP  55 23 11 00 fb
D515  D515  55  06  BNE  55 23 11 00 fb
D517  D517  11  06  CPY  55 23 11 00 fb
D519  D519  11  06  BNE  55 23 11 00 fb
D51B  D51B  23  06  CPX  55 23 11 00 fb
D51D  D51D  23  06  BVC  55 23 11 00 fb
D51F  D51F  23  06  BEQ  55 23 11 00 fb
D525  D525  46  06  LDA  55 23 11 00 fb
D527  D527  01  06  BIT  46 23 11 00 fb
D529  D529  78  06  STA  46 23 11 00 fb
D52C  D52C  78  06  BEQ  46 23 11 00 fb
D52E  D52E  78  06  BPL  46 23 11 00 fb
D530  D530  78  06  BVC  46 23 11 00 fb
D532  D532  78  06  LDA  46 23 11 00 fb
D535  D535  46  06  CMP  46 23 11 00 fb
D537  D537  46  06  BEQ  46 23 11 00 fb
D53D  D53D  55  06  LDA  46 23 11 00 fb
D53F  D53F  78  06  STA  55 23 11 00 fb
D542  D542  01  06  BIT  55 23 11 00 fb
D544  D544  11  06  LDA  55 23 11 00 fb
D546  D546  23  06  LDX  11 23 11 00 fb
D548  D548  00  06  LDY  11 23 11 00 fb
D54A  D54A  78  06  LDY  11 23 00 00 fb
D54D  D54D  78  06  BEQ  11 23 55 00 fb
D54F  D54F  78  06  BMI  11 23 55 00 fb
D551  D551  55  06  CPY  11 23 55 00 fb
D553  D553  55  06  BNE  11 23 55 00 fb
D555  D555  11  06  CMP  11 23 55 00 fb
D557  D557  11  06  BNE  11 23 55 00 fb
D559  D559  23  06  CPX  11 23 55 00 fb
D55B  D55B  23  06  BVC  11 23 55 00 fb
D55D  D55D  23  06  BEQ  11 23 55 00 fb
D563  D563  46  06  LDY  11 23 55 00 fb
D565  D565  01  06  BIT  11 23 46 00 fb
D567  D567  78  06  STY  11 23 46 00 fb
D56A  D56A  78  06  BEQ  11 23 46 00 fb
D56C  D56C  78  06  BPL  11 23 46 00 fb
D56E  D56E  78  06  BVC  11 23 46 00 fb
D570  D570  78  06  LDY  11 23 46 00 fb
D573  D573  46  06  CPY  11 23 46 00 fb
D575  D575  46  06  BEQ  11 23 46 00 fb
D57B  D57B  01  06  BIT  11 23 46 00 fb
D57D  D57D  55  06  LDA  11 23 46 00 fb
D57F  D57F  78  06  STA  55 23 46 00 fb
D582  D582  11  06  LDY  55 23 46 00 fb
D584  D584  23  06  LDA  55 23 11 00 fb
D586  D586  00  06  LDX  23 23 11 00 fb
D588  D588  78  06  LDX  23 00 11 00 fb
D58B  D58B  78  06  BEQ  23 55 11 00 fb
D58D  D58D  78  06  BMI  23 55 11 00 fb
D58F  D58F  55  06  CPX  23 55 11 00 fb
D591  D591  55  06  BNE  23 55 11 00 fb
D593  D593  11  06  CPY  23 55 11 00 fb
D595  D595  11  06  BNE  23 55 11 00 fb
D597  D597  23  06  CMP  23 55 11 00 fb
D599  D599  23  06  BVC  23 55 11 00 fb
D59B  D59B  23  06  BEQ  23 55 11 00 fb
D5A1  D5A1  46  06  LDX  23 55 11 00 fb
D5A3  D5A3  01  06  BIT  23 46 11 00 fb
D5A5  D5A5  78  06  STX  23 46 11 00 fb
D5A8  D5A8  78  06  BEQ  23 46 11 00 fb
D5AA  D5AA  78  06  BPL  23 46 11 00 fb
D5AC  D5AC  78  06  BVC  23 46 11 00 fb
D5AE  D5AE  78  06  LDX  23 46 11 00 fb
D5B1  D5B1  46  06  CPX  23 46 11 00 fb
D5B3  D5B3  46  06  BEQ  23 46 11 00 fb
D5B9  D5B9  c0  06  LDA  23 46 11 00 fb
D5BB  D5BB  78  06  STA  c0 46 11 00 fb
D5BE  D5BE  33  06  LDX  c0 46 11 00 fb
D5C0  D5C0  88  06  LDY  c0 33 11 00 fb
D5C2  D5C2  05  06  LDA  c0 33 88 00 fb
D5C4  D5C4  78  06  BIT  05 33 88 00 fb
D5C7  D5C7  78  06  BPL  05 33 88 00 fb
D5C9  D5C9  78  06  BVC  05 33 88 00 fb
D5CB  D5CB  78  06  BNE  05 33 88 00 fb
D5CD  D5CD  05  06  CMP  05 33 88 00 fb
D5CF  D5CF  05  06  BNE  05 33 88 00 fb
D5D1  D5D1  33  06  CPX  05 33 88 00 fb
D5D3  D5D3  33  06  BNE  05 33 88 00 fb
D5D5  D5D5  88  06  CPY  05 33 88 00 fb
D5D7  D5D7  88  06  BEQ  05 33 88 00 fb
D5DD  D5DD  03  06  LDA  05 33 88 00 fb
D5DF  D5DF  78  06  STA  03 33 88 00 fb
D5E2  D5E2  01  06  LDA  03 33 88 00 fb
D5E4  D5E4  78  06  BIT  01 33 88 00 fb
D5E7  D5E7  78  06  BMI  01 33 88 00 fb
D5E9  D5E9  78  06  BVS  01 33 88 00 fb
D5EB  D5EB  78  06  BEQ  01 33 88 00 fb
D5ED  D5ED  01  06  CMP  01 33 88 00 fb
D5EF  D5EF  01  06  BEQ  01 33 88 00 fb
D5F5  D5F5  b8  06  LDY  01 33 88 00 fb
D5F7  D5F7  aa  06  LDA  01 33 b8 00 fb
D5F9  D5F9  78  06  STA  aa 33 b8 00 fb
D5FC  D5FC  b6  f7  JSR  aa 33 b8 00 fb
F7B6  F7B6  b6  f7  CLC  aa 33 b8 00 f9
F7B7  F7B7  ff  f7  LDA  aa 33 b8 00 f9
F7B9  F7B9  01  f7  STA  ff 33 b8 00 f9
F7BB  F7BB  01  f7  BIT  ff 33 b8 00 f9
F7BD  F7BD  55  f7  LDA  ff 33 b8 00 f9
F7BF  F7BF  55  f7  RTS  55 33 b8 00 f9
D5FF  D5FF  78  06  ORA  55 33 b8 00 fb
D602  D602  c0  f7  JSR  ff 33 b8 00 fb
F7C0  F7C0  c0  f7  BCS  ff 33 b8 00 f9
F7C2  F7C2  c0  f7  BPL  ff 33 b8 00 f9
F7C4  F7C4  ff  f7  CMP  ff 33 b8 00 f9
F7C6  F7C6  ff  f7  BNE  ff 33 b8 00 f9
F7C8  F7C8  ff  f7  BVC  ff 33 b8 00 f9
F7CA  F7CA  ff  f7  RTS  ff 33 b8 00 f9
D605  D605  ff  f7  INY  ff 33 b8 00 fb
D606  D606  00  f7  LDA  ff 33 b9 00 fb
D608  D608  78  06  STA  00 33 b9 00 fb
D60B  D60B  ce  f7  JSR  00 33 b9 00 fb
F7CE  F7CE  ce  f7  SEC  00 33 b9 00 f9
F7CF  F7CF  ce  f7  CLV  00 33 b9 00 f9
F7D0  F7D0  00  f7  LDA  00 33 b9 00 f9
F7D2  F7D2  00  f7  RTS  00 33 b9 00 f9
D60E  D60E  78  06  ORA  00 33 b9 00 fb
D611  D611  d3  f7  JSR  00 33 b9 00 fb
F7D3  F7D3  d3  f7  BNE  00 33 b9 00 f9
F7D5  F7D5  d3  f7  BVS  00 33 b9 00 f9
F7D7  F7D7  d3  f7  BCC  00 33 b9 00 f9
F7D9  F7D9  d3  f7  BMI  00 33 b9 00 f9
F7DB  F7DB  d3  f7  RTS  00 33 b9 00 f9
D614  D614  d3  f7  INY  00 33 b9 00 fb
D615  D615  aa  f7  LDA  00 33 ba 00 fb
D617  D617  78  06  STA  aa 33 ba 00 fb
D61A  D61A  df  f7  JSR  aa 33 ba 00 fb
F7DF  F7DF  df  f7  CLC  aa 33 ba 00 f9
F7E0  F7E0  01  f7  BIT  aa 33 ba 00 f9
F7E2  F7E2  55  f7  LDA  aa 33 ba 00 f9
F7E4  F7E4  55  f7  RTS  55 33 ba 00 f9
D61D  D61D  78  06  AND  55 33 ba 00 fb
D620  D620  e5  f7  JSR  00 33 ba 00 fb
F7E5  F7E5  e5  f7  BNE  00 33 ba 00 f9
F7E7  F7E7  e5  f7  BVC  00 33 ba 00 f9
F7E9  F7E9  e5  f7  BCS  00 33 ba 00 f9
F7EB  F7EB  e5  f7  BMI  00 33 ba 00 f9
F7ED  F7ED  e5  f7  RTS  00 33 ba 00 f9
D623  D623  e5  f7  INY  00 33 ba 00 fb
D624  D624  ef  f7  LDA  00 33 bb 00 fb
D626  D626  78  06  STA  ef 33 bb 00 fb
D629  D629  f1  f7  JSR  ef 33 bb 00 fb
F7F1  F7F1  f1  f7  SEC  ef 33 bb 00 f9
F7F2  F7F2  f1  f7  CLV  ef 33 bb 00 f9
F7F3  F7F3  f8  f7  LDA  ef 33 bb 00 f9
F7F5  F7F5  f8  f7  RTS  f8 33 bb 00 f9
D62C  D62C  78  06  AND  f8 33 bb 00 fb
D62F  D62F  f6  f7  JSR  e8 33 bb 00 fb
F7F6  F7F6  f6  f7  BCC  e8 33 bb 00 f9
F7F8  F7F8  f6  f7  BPL  e8 33 bb 00 f9
F7FA  F7FA  e8  f7  CMP  e8 33 bb 00 f9
F7FC  F7FC  e8  f7  BNE  e8 33 bb 00 f9
F7FE  F7FE  e8  f7  BVS  e8 33 bb 00 f9
F800  F800  e8  f7  RTS  e8 33 bb 00 f9
D632  D632  e8  f7  INY  e8 33 bb 00 fb
D633  D633  aa  f7  LDA  e8 33 bc 00 fb
D635  D635  78  06  STA  aa 33 bc 00 fb
D638  D638  04  f8  JSR  aa 33 bc 00 fb
F804  F804  04  f8  CLC  aa 33 bc 00 f9
F805  F805  01  f8  BIT  aa 33 bc 00 f9
F807  F807  5f  f8  LDA  aa 33 bc 00 f9
F809  F809  5f  f8  RTS  5f 33 bc 00 f9
D63B  D63B  78  06  EOR  5f 33 bc 00 fb
D63E  D63E  0a  f8  JSR  f5 33 bc 00 fb
F80A  F80A  0a  f8  BCS  f5 33 bc 00 f9
F80C  F80C  0a  f8  BPL  f5 33 bc 00 f9
F80E  F80E  f5  f8  CMP  f5 33 bc 00 f9
F810  F810  f5  f8  BNE  f5 33 bc 00 f9
F812  F812  f5  f8  BVC  f5 33 bc 00 f9
F814  F814  f5  f8  RTS  f5 33 bc 00 f9
D641  D641  f5  f8  INY  f5 33 bc 00 fb
D642  D642  70  f8  LDA  f5 33 bd 00 fb
D644  D644  78  06  STA  70 33 bd 00 fb
D647  D647  18  f8  JSR  70 33 bd 00 fb
F818  F818  18  f8  SEC  70 33 bd 00 f9
F819  F819  18  f8  CLV  70 33 bd 00 f9
F81A  F81A  70  f8  LDA  70 33 bd 00 f9
F81C  F81C  70  f8  RTS  70 33 bd 00 f9
D64A  D64A  78  06  EOR  70 33 bd 00 fb
D64D  D64D  1d  f8  JSR  00 33 bd 00 fb
F81D  F81D  1d  f8  BNE  00 33 bd 00 f9
F81F  F81F  1d  f8  BVS  00 33 bd 00 f9
F821  F821  1d  f8  BCC  00 33 bd 00 f9
F823  F823  1d  f8  BMI  00 33 bd 00 f9
F825  F825  1d  f8  RTS  00 33 bd 00 f9
D650  D650  1d  f8  INY  00 33 bd 00 fb
D651  D651  69  f8  LDA  00 33 be 00 fb
D653  D653  78  06  STA  69 33 be 00 fb
D656  D656  29  f8  JSR  69 33 be 00 fb
F829  F829  29  f8  CLC  69 33 be 00 f9
F82A  F82A  01  f8  BIT  69 33 be 00 f9
F82C  F82C  00  f8  LDA  69 33 be 00 f9
F82E  F82E  00  f8  RTS  00 33 be 00 f9
D659  D659  78  06  ADC  00 33 be 00 fb
D65C  D65C  2f  f8  JSR  69 33 be 00 fb
F82F  F82F  2f  f8  BMI  69 33 be 00 f9
F831  F831  2f  f8  BCS  69 33 be 00 f9
F833  F833  69  f8  CMP  69 33 be 00 f9
F835  F835  69  f8  BNE  69 33 be 00 f9
F837  F837  69  f8  BVS  69 33 be 00 f9
F839  F839  69  f8  RTS  69 33 be 00 f9
D65F  D65F  69  f8  INY  69 33 be 00 fb
D660  D660  3d  f8  JSR  69 33 bf 00 fb
F83D  F83D  3d  f8  SEC  69 33 bf 00 f9
F83E  F83E  01  f8  BIT  69 33 bf 00 f9
F840  F840  00  f8  LDA  69 33 bf 00 f9
F842  F842  00  f8  RTS  00 33 bf 00 f9
D663  D663  78  06  ADC  00 33 bf 00 fb
D666  D666  43  f8  JSR  6a 33 bf 00 fb
F843  F843  43  f8  BMI  6a 33 bf 00 f9
F845  F845  43  f8  BCS  6a 33 bf 00 f9
F847  F847  6a  f8  CMP  6a 33 bf 00 f9
F849  F849  6a  f8  BNE  6a 33 bf 00 f9
F84B  F84B  6a  f8  BVS  6a 33 bf 00 f9
F84D  F84D  6a  f8  RTS  6a 33 bf 00 f9
D669  D669  6a  f8  INY  6a 33 bf 00 fb
D66A  D66A  7f  f8  LDA  6a 33 c0 00 fb
D66C  D66C  78  06  STA  7f 33 c0 00 fb
D66F  D66F  51  f8  JSR  7f 33 c0 00 fb
F851  F851  51  f8  SEC  7f 33 c0 00 f9
F852  F852  51  f8  CLV  7f 33 c0 00 f9
F853  F853  7f  f8  LDA  7f 33 c0 00 f9
F855  F855  7f  f8  RTS  7f 33 c0 00 f9
D672  D672  78  06  ADC  7f 33 c0 00 fb
D675  D675  56  f8  JSR  ff 33 c0 00 fb
F856  F856  56  f8  BPL  ff 33 c0 00 f9
F858  F858  56  f8  BCS  ff 33 c0 00 f9
F85A  F85A  ff  f8  CMP  ff 33 c0 00 f9
F85C  F85C  ff  f8  BNE  ff 33 c0 00 f9
F85E  F85E  ff  f8  BVC  ff 33 c0 00 f9
F860  F860  ff  f8  RTS  ff 33 c0 00 f9
D678  D678  ff  f8  INY  ff 33 c0 00 fb
D679  D679  80  f8  LDA  ff 33 c1 00 fb
D67B  D67B  78  06  STA  80 33 c1 00 fb
D67E  D67E  64  f8  JSR  80 33 c1 00 fb
F864  F864  64  f8  CLC  80 33 c1 00 f9
F865  F865  01  f8  BIT  80 33 c1 00 f9
F867  F867  7f  f8  LDA  80 33 c1 00 f9
F869  F869  7f  f8  RTS  7f 33 c1 00 f9
D681  D681  78  06  ADC  7f 33 c1 00 fb
D684  D684  6a  f8  JSR  ff 33 c1 00 fb
F86A  F86A  6a  f8  BPL  ff 33 c1 00 f9
F86C  F86C  6a  f8  BCS  ff 33 c1 00 f9
F86E  F86E  ff  f8  CMP  ff 33 c1 00 f9
F870  F870  ff  f8  BNE  ff 33 c1 00 f9
F872  F872  ff  f8  BVS  ff 33 c1 00 f9
F874  F874  ff  f8  RTS  ff 33 c1 00 f9
D687  D687  ff  f8  INY  ff 33 c1 00 fb
D688  D688  78  f8  JSR  ff 33 c2 00 fb
F878  F878  78  f8  SEC  ff 33 c2 00 f9
F879  F879  78  f8  CLV  ff 33 c2 00 f9
F87A  F87A  7f  f8  LDA  ff 33 c2 00 f9
F87C  F87C  7f  f8  RTS  7f 33 c2 00 f9
D68B  D68B  78  06  ADC  7f 33 c2 00 fb
D68E  D68E  7d  f8  JSR  00 33 c2 00 fb
F87D  F87D  7d  f8  BNE  00 33 c2 00 f9
F87F  F87F  7d  f8  BMI  00 33 c2 00 f9
F881  F881  7d  f8  BVS  00 33 c2 00 f9
F883  F883  7d  f8  BCC  00 33 c2 00 f9
F885  F885  7d  f8  RTS  00 33 c2 00 f9
D691  D691  7d  f8  INY  00 33 c2 00 fb
D692  D692  40  f8  LDA  00 33 c3 00 fb
D694  D694  78  06  STA  40 33 c3 00 fb
D697  D697  89  f8  JSR  40 33 c3 00 fb
F889  F889  01  f8  BIT  40 33 c3 00 f9
F88B  F88B  40  f8  LDA  40 33 c3 00 f9
F88D  F88D  40  f8  RTS  40 33 c3 00 f9
D69A  D69A  78  06  CMP  40 33 c3 00 fb
D69D  D69D  8e  f8  JSR  40 33 c3 00 fb
F88E  F88E  8e  f8  BMI  40 33 c3 00 f9
F890  F890  8e  f8  BCC  40 33 c3 00 f9
F892  F892  8e  f8  BNE  40 33 c3 00 f9
F894  F894  8e  f8  BVC  40 33 c3 00 f9
F896  F896  8e  f8  RTS  40 33 c3 00 f9
D6A0  D6A0  8e  f8  INY  40 33 c3 00 fb
D6A1  D6A1  8e  f8  PHA  40 33 c4 00 fb
D6A2  D6A2  3f  f8  LDA  40 33 c4 00 fa
D6A4  D6A4  78  06  STA  3f 33 c4 00 fa
D6A7  D6A7  78  06  PLA  3f 33 c4 00 fa
D6A8  D6A8  9a  f8  JSR  40 33 c4 00 fb
F89A  F89A  9a  f8  CLV  40 33 c4 00 f9
F89B  F89B  9a  f8  RTS  40 33 c4 00 f9
D6AB  D6AB  78  06  CMP  40 33 c4 00 fb
D6AE  D6AE  9c  f8  JSR  40 33 c4 00 fb
F89C  F89C  9c  f8  BEQ  40 33 c4 00 f9
F89E  F89E  9c  f8  BMI  40 33 c4 00 f9
F8A0  F8A0  9c  f8  BCC  40 33 c4 00 f9
F8A2  F8A2  9c  f8  BVS  40 33 c4 00 f9
F8A4  F8A4  9c  f8  RTS  40 33 c4 00 f9
D6B1  D6B1  9c  f8  INY  40 33 c4 00 fb
D6B2  D6B2  9c  f8  PHA  40 33 c5 00 fb
D6B3  D6B3  41  f8  LDA  40 33 c5 00 fa
D6B5  D6B5  78  06  STA  41 33 c5 00 fa
D6B8  D6B8  78  06  PLA  41 33 c5 00 fa
D6B9  D6B9  78  06  CMP  40 33 c5 00 fb
D6BC  D6BC  a8  f8  JSR  40 33 c5 00 fb
F8A8  F8A8  a8  f8  BEQ  40 33 c5 00 f9
F8AA  F8AA  a8  f8  BPL  40 33 c5 00 f9
F8AC  F8AC  a8  f8  BPL  40 33 c5 00 f9
F8AE  F8AE  a8  f8  RTS  40 33 c5 00 f9
D6BF  D6BF  a8  f8  INY  40 33 c5 00 fb
D6C0  D6C0  a8  f8  PHA  40 33 c6 00 fb
D6C1  D6C1  00  f8  LDA  40 33 c6 00 fa
D6C3  D6C3  78  06  STA  00 33 c6 00 fa
D6C6  D6C6  78  06  PLA  00 33 c6 00 fa
D6C7  D6C7  b2  f8  JSR  40 33 c6 00 fb
F8B2  F8B2  80  f8  LDA  40 33 c6 00 f9
F8B4  F8B4  80  f8  RTS  80 33 c6 00 f9
D6CA  D6CA  78  06  CMP  80 33 c6 00 fb
D6CD  D6CD  b5  f8  JSR  80 33 c6 00 fb
F8B5  F8B5  b5  f8  BEQ  80 33 c6 00 f9
F8B7  F8B7  b5  f8  BPL  80 33 c6 00 f9
F8B9  F8B9  b5  f8  BCC  80 33 c6 00 f9
F8BB  F8BB  b5  f8  RTS  80 33 c6 00 f9
D6D0  D6D0  b5  f8  INY  80 33 c6 00 fb
D6D1  D6D1  b5  f8  PHA  80 33 c7 00 fb
D6D2  D6D2  80  f8  LDA  80 33 c7 00 fa
D6D4  D6D4  78  06  STA  80 33 c7 00 fa
D6D7  D6D7  78  06  PLA  80 33 c7 00 fa
D6D8  D6D8  78  06  CMP  80 33 c7 00 fb
D6DB  D6DB  bf  f8  JSR  80 33 c7 00 fb
F8BF  F8BF  bf  f8  BNE  80 33 c7 00 f9
F8C1  F8C1  bf  f8  BMI  80 33 c7 00 f9
F8C3  F8C3  bf  f8  BCC  80 33 c7 00 f9
F8C5  F8C5  bf  f8  RTS  80 33 c7 00 f9
D6DE  D6DE  bf  f8  INY  80 33 c7 00 fb
D6DF  D6DF  bf  f8  PHA  80 33 c8 00 fb
D6E0  D6E0  81  f8  LDA  80 33 c8 00 fa
D6E2  D6E2  78  06  STA  81 33 c8 00 fa
D6E5  D6E5  78  06  PLA  81 33 c8 00 fa
D6E6  D6E6  78  06  CMP  80 33 c8 00 fb
D6E9  D6E9  c9  f8  JSR  80 33 c8 00 fb
F8C9  F8C9  c9  f8  BCS  80 33 c8 00 f9
F8CB  F8CB  c9  f8  BEQ  80 33 c8 00 f9
F8CD  F8CD  c9  f8  BPL  80 33 c8 00 f9
F8CF  F8CF  c9  f8  RTS  80 33 c8 00 f9
D6EC  D6EC  c9  f8  INY  80 33 c8 00 fb
D6ED  D6ED  c9  f8  PHA  80 33 c9 00 fb
D6EE  D6EE  7f  f8  LDA  80 33 c9 00 fa
D6F0  D6F0  78  06  STA  7f 33 c9 00 fa
D6F3  D6F3  78  06  PLA  7f 33 c9 00 fa
D6F4  D6F4  78  06  CMP  80 33 c9 00 fb
D6F7  D6F7  d3  f8  JSR  80 33 c9 00 fb
F8D3  F8D3  d3  f8  BCC  80 33 c9 00 f9
F8D5  F8D5  d3  f8  BEQ  80 33 c9 00 f9
F8D7  F8D7  d3  f8  BMI  80 33 c9 00 f9
F8D9  F8D9  d3  f8  RTS  80 33 c9 00 f9
D6FA  D6FA  d3  f8  INY  80 33 c9 00 fb
D6FB  D6FB  40  f8  LDA  80 33 ca 00 fb
D6FD  D6FD  78  06  STA  40 33 ca 00 fb
D700  D700  31  f9  JSR  40 33 ca 00 fb
F931  F931  01  f9  BIT  40 33 ca 00 f9
F933  F933  40  f9  LDA  40 33 ca 00 f9
F935  F935  40  f9  SEC  40 33 ca 00 f9
F936  F936  40  f9  RTS  40 33 ca 00 f9
D703  D703  78  06  SBC  40 33 ca 00 fb
D706  D706  37  f9  JSR  00 33 ca 00 fb
F937  F937  37  f9  BMI  00 33 ca 00 f9
F939  F939  37  f9  BCC  00 33 ca 00 f9
F944  F944  00  f9  STY  00 33 ca 00 f9
F946  F946  00  f9  RTS  00 33 ca 00 f9
D709  D709  00  f9  INY  00 33 ca 00 fb
D70A  D70A  3f  f9  LDA  00 33 cb 00 fb
D70C  D70C  78  06  STA  3f 33 cb 00 fb
D70F  D70F  47  f9  JSR  3f 33 cb 00 fb
F947  F947  47  f9  CLV  3f 33 cb 00 f9
F948  F948  47  f9  SEC  3f 33 cb 00 f9
F949  F949  40  f9  LDA  3f 33 cb 00 f9
F94B  F94B  40  f9  RTS  40 33 cb 00 f9
D712  D712  78  06  SBC  40 33 cb 00 fb
D715  D715  4c  f9  JSR  01 33 cb 00 fb
F94C  F94C  4c  f9  BEQ  01 33 cb 00 f9
F94E  F94E  4c  f9  BMI  01 33 cb 00 f9
F950  F950  4c  f9  BCC  01 33 cb 00 f9
F959  F959  00  f9  STY  01 33 cb 00 f9
F95B  F95B  00  f9  RTS  01 33 cb 00 f9
D718  D718  00  f9  INY  01 33 cb 00 fb
D719  D719  41  f9  LDA  01 33 cc 00 fb
D71B  D71B  78  06  STA  41 33 cc 00 fb
D71E  D71E  5c  f9  JSR  41 33 cc 00 fb
F95C  F95C  40  f9  LDA  41 33 cc 00 f9
F95E  F95E  40  f9  SEC  40 33 cc 00 f9
F95F  F95F  01  f9  BIT  40 33 cc 00 f9
F961  F961  01  f9  RTS  40 33 cc 00 f9
D721  D721  78  06  SBC  40 33 cc 00 fb
D724  D724  62  f9  JSR  ff 33 cc 00 fb
F962  F962  62  f9  BCS  ff 33 cc 00 f9
F964  F964  62  f9  BEQ  ff 33 cc 00 f9
F966  F966  62  f9  BPL  ff 33 cc 00 f9
F968  F968  62  f9  BVS  ff 33 cc 00 f9
F96A  F96A  ff  f9  CMP  ff 33 cc 00 f9
F96C  F96C  ff  f9  BNE  ff 33 cc 00 f9
F96E  F96E  ff  f9  RTS  ff 33 cc 00 f9
D727  D727  ff  f9  INY  ff 33 cc 00 fb
D728  D728  00  f9  LDA  ff 33 cd 00 fb
D72A  D72A  78  06  STA  00 33 cd 00 fb
D72D  D72D  72  f9  JSR  00 33 cd 00 fb
F972  F972  72  f9  CLC  00 33 cd 00 f9
F973  F973  80  f9  LDA  00 33 cd 00 f9
F975  F975  80  f9  RTS  80 33 cd 00 f9
D730  D730  78  06  SBC  80 33 cd 00 fb
D733  D733  76  f9  JSR  7f 33 cd 00 fb
F976  F976  76  f9  BCC  7f 33 cd 00 f9
F97D  F97D  00  f9  STY  7f 33 cd 00 f9
F97F  F97F  00  f9  RTS  7f 33 cd 00 f9
D736  D736  00  f9  INY  7f 33 cd 00 fb
D737  D737  7f  f9  LDA  7f 33 ce 00 fb
D739  D739  78  06  STA  7f 33 ce 00 fb
D73C  D73C  80  f9  JSR  7f 33 ce 00 fb
F980  F980  80  f9  SEC  7f 33 ce 00 f9
F981  F981  81  f9  LDA  7f 33 ce 00 f9
F983  F983  81  f9  RTS  81 33 ce 00 f9
D73F  D73F  78  06  SBC  81 33 ce 00 fb
D742  D742  84  f9  JSR  02 33 ce 00 fb
F984  F984  84  f9  BVC  02 33 ce 00 f9
F986  F986  84  f9  BCC  02 33 ce 00 f9
F98D  F98D  00  f9  STY  02 33 ce 00 f9
F98F  F98F  00  f9  RTS  02 33 ce 00 f9
D745  D745  00  f9  INY  02 33 ce 00 fb
D746  D746  40  f9  LDA  02 33 cf 00 fb
D748  D748  78  06  STA  40 33 cf 00 fb
D74B  D74B  89  f8  JSR  40 33 cf 00 fb
F889  F889  01  f8  BIT  40 33 cf 00 f9
F88B  F88B  40  f8  LDA  40 33 cf 00 f9
F88D  F88D  40  f8  RTS  40 33 cf 00 f9
D74E  D74E  40  f8  TAX  40 33 cf 00 fb
D74F  D74F  78  06  CPX  40 40 cf 00 fb
D752  D752  8e  f8  JSR  40 40 cf 00 fb
F88E  F88E  8e  f8  BMI  40 40 cf 00 f9
F890  F890  8e  f8  BCC  40 40 cf 00 f9
F892  F892  8e  f8  BNE  40 40 cf 00 f9
F894  F894  8e  f8  BVC  40 40 cf 00 f9
F896  F896  8e  f8  RTS  40 40 cf 00 f9
D755  D755  8e  f8  INY  40 40 cf 00 fb
D756  D756  3f  f8  LDA  40 40 d0 00 fb
D758  D758  78  06  STA  3f 40 d0 00 fb
D75B  D75B  9a  f8  JSR  3f 40 d0 00 fb
F89A  F89A  9a  f8  CLV  3f 40 d0 00 f9
F89B  F89B  9a  f8  RTS  3f 40 d0 00 f9
D75E  D75E  78  06  CPX  3f 40 d0 00 fb
D761  D761  9c  f8  JSR  3f 40 d0 00 fb
F89C  F89C  9c  f8  BEQ  3f 40 d0 00 f9
F89E  F89E  9c  f8  BMI  3f 40 d0 00 f9
F8A0  F8A0  9c  f8  BCC  3f 40 d0 00 f9
F8A2  F8A2  9c  f8  BVS  3f 40 d0 00 f9
F8A4  F8A4  9c  f8  RTS  3f 40 d0 00 f9
D764  D764  9c  f8  INY  3f 40 d0 00 fb
D765  D765  41  f8  LDA  3f 40 d1 00 fb
D767  D767  78  06  STA  41 40 d1 00 fb
D76A  D76A  78  06  CPX  41 40 d1 00 fb
D76D  D76D  a8  f8  JSR  41 40 d1 00 fb
F8A8  F8A8  a8  f8  BEQ  41 40 d1 00 f9
F8AA  F8AA  a8  f8  BPL  41 40 d1 00 f9
F8AC  F8AC  a8  f8  BPL  41 40 d1 00 f9
F8AE  F8AE  a8  f8  RTS  41 40 d1 00 f9
D770  D770  a8  f8  INY  41 40 d1 00 fb
D771  D771  00  f8  LDA  41 40 d2 00 fb
D773  D773  78  06  STA  00 40 d2 00 fb
D776  D776  b2  f8  JSR  00 40 d2 00 fb
F8B2  F8B2  80  f8  LDA  00 40 d2 00 f9
F8B4  F8B4  80  f8  RTS  80 40 d2 00 f9
D779  D779  80  f8  TAX  80 40 d2 00 fb
D77A  D77A  78  06  CPX  80 80 d2 00 fb
D77D  D77D  b5  f8  JSR  80 80 d2 00 fb
F8B5  F8B5  b5  f8  BEQ  80 80 d2 00 f9
F8B7  F8B7  b5  f8  BPL  80 80 d2 00 f9
F8B9  F8B9  b5  f8  BCC  80 80 d2 00 f9
F8BB  F8BB  b5  f8  RTS  80 80 d2 00 f9
D780  D780  b5  f8  INY  80 80 d2 00 fb
D781  D781  80  f8  LDA  80 80 d3 00 fb
D783  D783  78  06  STA  80 80 d3 00 fb
D786  D786  78  06  CPX  80 80 d3 00 fb
D789  D789  bf  f8  JSR  80 80 d3 00 fb
F8BF  F8BF  bf  f8  BNE  80 80 d3 00 f9
F8C1  F8C1  bf  f8  BMI  80 80 d3 00 f9
F8C3  F8C3  bf  f8  BCC  80 80 d3 00 f9
F8C5  F8C5  bf  f8  RTS  80 80 d3 00 f9
D78C  D78C  bf  f8  INY  80 80 d3 00 fb
D78D  D78D  81  f8  LDA  80 80 d4 00 fb
D78F  D78F  78  06  STA  81 80 d4 00 fb
D792  D792  78  06  CPX  81 80 d4 00 fb
D795  D795  c9  f8  JSR  81 80 d4 00 fb
F8C9  F8C9  c9  f8  BCS  81 80 d4 00 f9
F8CB  F8CB  c9  f8  BEQ  81 80 d4 00 f9
F8CD  F8CD  c9  f8  BPL  81 80 d4 00 f9
F8CF  F8CF  c9  f8  RTS  81 80 d4 00 f9
D798  D798  c9  f8  INY  81 80 d4 00 fb
D799  D799  7f  f8  LDA  81 80 d5 00 fb
D79B  D79B  78  06  STA  7f 80 d5 00 fb
D79E  D79E  78  06  CPX  7f 80 d5 00 fb
D7A1  D7A1  d3  f8  JSR  7f 80 d5 00 fb
F8D3  F8D3  d3  f8  BCC  7f 80 d5 00 f9
F8D5  F8D5  d3  f8  BEQ  7f 80 d5 00 f9
F8D7  F8D7  d3  f8  BMI  7f 80 d5 00 f9
F8D9  F8D9  d3  f8  RTS  7f 80 d5 00 f9
D7A4  D7A4  d3  f8  INY  7f 80 d5 00 fb
D7A5  D7A5  d3  f8  TYA  7f 80 d6 00 fb
D7A6  D7A6  d3  f8  TAX  d6 80 d6 00 fb
D7A7  D7A7  40  f8  LDA  d6 d6 d6 00 fb
D7A9  D7A9  78  06  STA  40 d6 d6 00 fb
D7AC  D7AC  dd  f8  JSR  40 d6 d6 00 fb
F8DD  F8DD  01  f8  BIT  40 d6 d6 00 f9
F8DF  F8DF  40  f8  LDY  40 d6 d6 00 f9
F8E1  F8E1  40  f8  RTS  40 d6 40 00 f9
D7AF  D7AF  78  06  CPY  40 d6 40 00 fb
D7B2  D7B2  e2  f8  JSR  40 d6 40 00 fb
F8E2  F8E2  e2  f8  BMI  40 d6 40 00 f9
F8E4  F8E4  e2  f8  BCC  40 d6 40 00 f9
F8E6  F8E6  e2  f8  BNE  40 d6 40 00 f9
F8E8  F8E8  e2  f8  BVC  40 d6 40 00 f9
F8EA  F8EA  e2  f8  RTS  40 d6 40 00 f9
D7B5  D7B5  e2  f8  INX  40 d6 40 00 fb
D7B6  D7B6  3f  f8  LDA  40 d7 40 00 fb
D7B8  D7B8  78  06  STA  3f d7 40 00 fb
D7BB  D7BB  ee  f8  JSR  3f d7 40 00 fb
F8EE  F8EE  ee  f8  CLV  3f d7 40 00 f9
F8EF  F8EF  ee  f8  RTS  3f d7 40 00 f9
D7BE  D7BE  78  06  CPY  3f d7 40 00 fb
D7C1  D7C1  f0  f8  JSR  3f d7 40 00 fb
F8F0  F8F0  f0  f8  BEQ  3f d7 40 00 f9
F8F2  F8F2  f0  f8  BMI  3f d7 40 00 f9
F8F4  F8F4  f0  f8  BCC  3f d7 40 00 f9
F8F6  F8F6  f0  f8  BVS  3f d7 40 00 f9
F8F8  F8F8  f0  f8  RTS  3f d7 40 00 f9
D7C4  D7C4  f0  f8  INX  3f d7 40 00 fb
D7C5  D7C5  41  f8  LDA  3f d8 40 00 fb
D7C7  D7C7  78  06  STA  41 d8 40 00 fb
D7CA  D7CA  78  06  CPY  41 d8 40 00 fb
D7CD  D7CD  fc  f8  JSR  41 d8 40 00 fb
F8FC  F8FC  fc  f8  BEQ  41 d8 40 00 f9
F8FE  F8FE  fc  f8  BPL  41 d8 40 00 f9
F900  F900  fc  f8  BPL  41 d8 40 00 f9
F902  F902  fc  f8  RTS  41 d8 40 00 f9
D7D0  D7D0  fc  f8  INX  41 d8 40 00 fb
D7D1  D7D1  00  f8  LDA  41 d9 40 00 fb
D7D3  D7D3  78  06  STA  00 d9 40 00 fb
D7D6  D7D6  06  f9  JSR  00 d9 40 00 fb
F906  F906  80  f9  LDY  00 d9 40 00 f9
F908  F908  80  f9  RTS  00 d9 80 00 f9
D7D9  D7D9  78  06  CPY  00 d9 80 00 fb
D7DC  D7DC  09  f9  JSR  00 d9 80 00 fb
F909  F909  09  f9  BEQ  00 d9 80 00 f9
F90B  F90B  09  f9  BPL  00 d9 80 00 f9
F90D  F90D  09  f9  BCC  00 d9 80 00 f9
F90F  F90F  09  f9  RTS  00 d9 80 00 f9
D7DF  D7DF  09  f9  INX  00 d9 80 00 fb
D7E0  D7E0  80  f9  LDA  00 da 80 00 fb
D7E2  D7E2  78  06  STA  80 da 80 00 fb
D7E5  D7E5  78  06  CPY  80 da 80 00 fb
D7E8  D7E8  13  f9  JSR  80 da 80 00 fb
F913  F913  13  f9  BNE  80 da 80 00 f9
F915  F915  13  f9  BMI  80 da 80 00 f9
F917  F917  13  f9  BCC  80 da 80 00 f9
F919  F919  13  f9  RTS  80 da 80 00 f9
D7EB  D7EB  13  f9  INX  80 da 80 00 fb
D7EC  D7EC  81  f9  LDA  80 db 80 00 fb
D7EE  D7EE  78  06  STA  81 db 80 00 fb
D7F1  D7F1  78  06  CPY  81 db 80 00 fb
D7F4  D7F4  1d  f9  JSR  81 db 80 00 fb
F91D  F91D  1d  f9  BCS  81 db 80 00 f9
F91F  F91F  1d  f9  BEQ  81 db 80 00 f9
F921  F921  1d  f9  BPL  81 db 80 00 f9
F923  F923  1d  f9  RTS  81 db 80 00 f9
D7F7  D7F7  1d  f9  INX  81 db 80 00 fb
D7F8  D7F8  7f  f9  LDA  81 dc 80 00 fb
D7FA  D7FA  78  06  STA  7f dc 80 00 fb
D7FD  D7FD  78  06  CPY  7f dc 80 00 fb
D800  D800  27  f9  JSR  7f dc 80 00 fb
F927  F927  27  f9  BCC  7f dc 80 00 f9
F929  F929  27  f9  BEQ  7f dc 80 00 f9
F92B  F92B  27  f9  BMI  7f dc 80 00 f9
F92D  F92D  27  f9  RTS  7f dc 80 00 f9
D803  D803  27  f9  INX  7f dc 80 00 fb
D804  D804  27  f9  TXA  7f dd 80 00 fb
D805  D805  27  f9  TAY  dd dd 80 00 fb
D806  D806  90  f9  JSR  dd dd dd 00 fb
F990  F990  55  f9  LDX  dd dd dd 00 f9
F992  F992  ff  f9  LDA  dd 55 dd 00 f9
F994  F994  01  f9  STA  ff 55 dd 00 f9
F996  F996  01  f9  NOP  ff 55 dd 00 f9
F997  F997  01  f9  BIT  ff 55 dd 00 f9
F999  F999  01  f9  SEC  ff 55 dd 00 f9
F99A  F99A  01  f9  LDA  ff 55 dd 00 f9
F99C  F99C  01  f9  RTS  01 55 dd 00 f9
D809  D809  78  06  STA  01 55 dd 00 fb
D80C  D80C  78  06  LSR  01 55 dd 00 fb
D80F  D80F  78  06  LDA  01 55 dd 00 fb
D812  D812  9d  f9  JSR  00 55 dd 00 fb
F99D  F99D  9d  f9  BCC  00 55 dd 00 f9
F99F  F99F  9d  f9  BNE  00 55 dd 00 f9
F9A1  F9A1  9d  f9  BMI  00 55 dd 00 f9
F9A3  F9A3  9d  f9  BVC  00 55 dd 00 f9
F9A5  F9A5  00  f9  CMP  00 55 dd 00 f9
F9A7  F9A7  00  f9  BNE  00 55 dd 00 f9
F9A9  F9A9  00  f9  CLV  00 55 dd 00 f9
F9AA  F9AA  aa  f9  LDA  00 55 dd 00 f9
F9AC  F9AC  aa  f9  RTS  aa 55 dd 00 f9
D815  D815  aa  f9  INY  aa 55 dd 00 fb
D816  D816  78  06  STA  aa 55 de 00 fb
D819  D819  78  06  LSR  aa 55 de 00 fb
D81C  D81C  78  06  LDA  aa 55 de 00 fb
D81F  D81F  ad  f9  JSR  55 55 de 00 fb
F9AD  F9AD  ad  f9  BCS  55 55 de 00 f9
F9AF  F9AF  ad  f9  BEQ  55 55 de 00 f9
F9B1  F9B1  ad  f9  BMI  55 55 de 00 f9
F9B3  F9B3  ad  f9  BVS  55 55 de 00 f9
F9B5  F9B5  55  f9  CMP  55 55 de 00 f9
F9B7  F9B7  55  f9  BNE  55 55 de 00 f9
F9B9  F9B9  55  f9  RTS  55 55 de 00 f9
D822  D822  55  f9  INY  55 55 de 00 fb
D823  D823  bd  f9  JSR  55 55 df 00 fb
F9BD  F9BD  01  f9  BIT  55 55 df 00 f9
F9BF  F9BF  01  f9  SEC  55 55 df 00 f9
F9C0  F9C0  80  f9  LDA  55 55 df 00 f9
F9C2  F9C2  80  f9  RTS  80 55 df 00 f9
D826  D826  78  06  STA  80 55 df 00 fb
D829  D829  78  06  ASL  80 55 df 00 fb
D82C  D82C  78  06  LDA  80 55 df 00 fb
D82F  D82F  c3  f9  JSR  00 55 df 00 fb
F9C3  F9C3  c3  f9  BCC  00 55 df 00 f9
F9C5  F9C5  c3  f9  BNE  00 55 df 00 f9
F9C7  F9C7  c3  f9  BMI  00 55 df 00 f9
F9C9  F9C9  c3  f9  BVC  00 55 df 00 f9
F9CB  F9CB  00  f9  CMP  00 55 df 00 f9
F9CD  F9CD  00  f9  BNE  00 55 df 00 f9
F9CF  F9CF  00  f9  CLV  00 55 df 00 f9
F9D0  F9D0  55  f9  LDA  00 55 df 00 f9
F9D2  F9D2  55  f9  SEC  55 55 df 00 f9
F9D3  F9D3  55  f9  RTS  55 55 df 00 f9
D832  D832  55  f9  INY  55 55 df 00 fb
D833  D833  78  06  STA  55 55 e0 00 fb
D836  D836  78  06  ASL  55 55 e0 00 fb
D839  D839  78  06  LDA  55 55 e0 00 fb
D83C  D83C  d4  f9  JSR  aa 55 e0 00 fb
F9D4  F9D4  d4  f9  BCS  aa 55 e0 00 f9
F9D6  F9D6  d4  f9  BEQ  aa 55 e0 00 f9
F9D8  F9D8  d4  f9  BPL  aa 55 e0 00 f9
F9DA  F9DA  d4  f9  BVS  aa 55 e0 00 f9
F9DC  F9DC  aa  f9  CMP  aa 55 e0 00 f9
F9DE  F9DE  aa  f9  BNE  aa 55 e0 00 f9
F9E0  F9E0  aa  f9  RTS  aa 55 e0 00 f9
D83F  D83F  aa  f9  INY  aa 55 e0 00 fb
D840  D840  e4  f9  JSR  aa 55 e1 00 fb
F9E4  F9E4  01  f9  BIT  aa 55 e1 00 f9
F9E6  F9E6  01  f9  SEC  aa 55 e1 00 f9
F9E7  F9E7  01  f9  LDA  aa 55 e1 00 f9
F9E9  F9E9  01  f9  RTS  01 55 e1 00 f9
D843  D843  78  06  STA  01 55 e1 00 fb
D846  D846  78  06  ROR  01 55 e1 00 fb
D849  D849  78  06  LDA  01 55 e1 00 fb
D84C  D84C  ea  f9  JSR  80 55 e1 00 fb
F9EA  F9EA  ea  f9  BCC  80 55 e1 00 f9
F9EC  F9EC  ea  f9  BEQ  80 55 e1 00 f9
F9EE  F9EE  ea  f9  BPL  80 55 e1 00 f9
F9F0  F9F0  ea  f9  BVC  80 55 e1 00 f9
F9F2  F9F2  80  f9  CMP  80 55 e1 00 f9
F9F4  F9F4  80  f9  BNE  80 55 e1 00 f9
F9F6  F9F6  80  f9  CLV  80 55 e1 00 f9
F9F7  F9F7  80  f9  CLC  80 55 e1 00 f9
F9F8  F9F8  55  f9  LDA  80 55 e1 00 f9
F9FA  F9FA  55  f9  RTS  55 55 e1 00 f9
D84F  D84F  55  f9  INY  55 55 e1 00 fb
D850  D850  78  06  STA  55 55 e2 00 fb
D853  D853  78  06  ROR  55 55 e2 00 fb
D856  D856  78  06  LDA  55 55 e2 00 fb
D859  D859  fb  f9  JSR  2a 55 e2 00 fb
F9FB  F9FB  fb  f9  BCC  2a 55 e2 00 f9
F9FD  F9FD  fb  f9  BEQ  2a 55 e2 00 f9
F9FF  F9FF  fb  f9  BMI  2a 55 e2 00 f9
FA01  FA01  fb  f9  BVS  2a 55 e2 00 f9
FA03  FA03  2a  f9  CMP  2a 55 e2 00 f9
FA05  FA05  2a  f9  BNE  2a 55 e2 00 f9
FA07  FA07  2a  f9  RTS  2a 55 e2 00 f9
D85C  D85C  2a  f9  INY  2a 55 e2 00 fb
D85D  D85D  0a  fa  JSR  2a 55 e3 00 fb
FA0A  FA0A  01  fa  BIT  2a 55 e3 00 f9
FA0C  FA0C  01  fa  SEC  2a 55 e3 00 f9
FA0D  FA0D  80  fa  LDA  2a 55 e3 00 f9
FA0F  FA0F  80  fa  RTS  80 55 e3 00 f9
D860  D860  78  06  STA  80 55 e3 00 fb
D863  D863  78  06  ROL  80 55 e3 00 fb
D866  D866  78  06  LDA  80 55 e3 00 fb
D869  D869  10  fa  JSR  01 55 e3 00 fb
FA10  FA10  10  fa  BCC  01 55 e3 00 f9
FA12  FA12  10  fa  BEQ  01 55 e3 00 f9
FA14  FA14  10  fa  BMI  01 55 e3 00 f9
FA16  FA16  10  fa  BVC  01 55 e3 00 f9
FA18  FA18  01  fa  CMP  01 55 e3 00 f9
FA1A  FA1A  01  fa  BNE  01 55 e3 00 f9
FA1C  FA1C  01  fa  CLV  01 55 e3 00 f9
FA1D  FA1D  01  fa  CLC  01 55 e3 00 f9
FA1E  FA1E  55  fa  LDA  01 55 e3 00 f9
FA20  FA20  55  fa  RTS  55 55 e3 00 f9
D86C  D86C  55  fa  INY  55 55 e3 00 fb
D86D  D86D  78  06  STA  55 55 e4 00 fb
D870  D870  78  06  ROL  55 55 e4 00 fb
D873  D873  78  06  LDA  55 55 e4 00 fb
D876  D876  21  fa  JSR  aa 55 e4 00 fb
FA21  FA21  21  fa  BCS  aa 55 e4 00 f9
FA23  FA23  21  fa  BEQ  aa 55 e4 00 f9
FA25  FA25  21  fa  BPL  aa 55 e4 00 f9
FA27  FA27  21  fa  BVS  aa 55 e4 00 f9
FA29  FA29  aa  fa  CMP  aa 55 e4 00 f9
FA2B  FA2B  aa  fa  BNE  aa 55 e4 00 f9
FA2D  FA2D  aa  fa  RTS  aa 55 e4 00 f9
D879  D879  ff  fa  LDA  aa 55 e4 00 fb
D87B  D87B  78  06  STA  ff 55 e4 00 fb
D87E  D87E  01  06  STA  ff 55 e4 00 fb
D880  D880  01  06  BIT  ff 55 e4 00 fb
D882  D882  01  06  SEC  ff 55 e4 00 fb
D883  D883  78  06  INC  ff 55 e4 00 fb
D886  D886  78  06  BNE  ff 55 e4 00 fb
D888  D888  78  06  BMI  ff 55 e4 00 fb
D88A  D88A  78  06  BVC  ff 55 e4 00 fb
D88C  D88C  78  06  BCC  ff 55 e4 00 fb
D88E  D88E  78  06  LDA  ff 55 e4 00 fb
D891  D891  00  06  CMP  00 55 e4 00 fb
D893  D893  00  06  BEQ  00 55 e4 00 fb
D899  D899  7f  06  LDA  00 55 e4 00 fb
D89B  D89B  78  06  STA  7f 55 e4 00 fb
D89E  D89E  78  06  CLV  7f 55 e4 00 fb
D89F  D89F  78  06  CLC  7f 55 e4 00 fb
D8A0  D8A0  78  06  INC  7f 55 e4 00 fb
D8A3  D8A3  78  06  BEQ  7f 55 e4 00 fb
D8A5  D8A5  78  06  BPL  7f 55 e4 00 fb
D8A7  D8A7  78  06  BVS  7f 55 e4 00 fb
D8A9  D8A9  78  06  BCS  7f 55 e4 00 fb
D8AB  D8AB  78  06  LDA  7f 55 e4 00 fb
D8AE  D8AE  80  06  CMP  80 55 e4 00 fb
D8B0  D8B0  80  06  BEQ  80 55 e4 00 fb
D8B6  D8B6  00  06  LDA  80 55 e4 00 fb
D8B8  D8B8  78  06  STA  00 55 e4 00 fb
D8BB  D8BB  01  06  BIT  00 55 e4 00 fb
D8BD  D8BD  01  06  SEC  00 55 e4 00 fb
D8BE  D8BE  78  06  DEC  00 55 e4 00 fb
D8C1  D8C1  78  06  BEQ  00 55 e4 00 fb
D8C3  D8C3  78  06  BPL  00 55 e4 00 fb
D8C5  D8C5  78  06  BVC  00 55 e4 00 fb
D8C7  D8C7  78  06  BCC  00 55 e4 00 fb
D8C9  D8C9  78  06  LDA  00 55 e4 00 fb
D8CC  D8CC  ff  06  CMP  ff 55 e4 00 fb
D8CE  D8CE  ff  06  BEQ  ff 55 e4 00 fb
D8D4  D8D4  80  06  LDA  ff 55 e4 00 fb
D8D6  D8D6  78  06  STA  80 55 e4 00 fb
D8D9  D8D9  78  06  CLV  80 55 e4 00 fb
D8DA  D8DA  78  06  CLC  80 55 e4 00 fb
D8DB  D8DB  78  06  DEC  80 55 e4 00 fb
D8DE  D8DE  78  06  BEQ  80 55 e4 00 fb
D8E0  D8E0  78  06  BMI  80 55 e4 00 fb
D8E2  D8E2  78  06  BVS  80 55 e4 00 fb
D8E4  D8E4  78  06  BCS  80 55 e4 00 fb
D8E6  D8E6  78  06  LDA  80 55 e4 00 fb
D8E9  D8E9  7f  06  CMP  7f 55 e4 00 fb
D8EB  D8EB  7f  06  BEQ  7f 55 e4 00 fb
D8F1  D8F1  01  06  LDA  7f 55 e4 00 fb
D8F3  D8F3  78  06  STA  01 55 e4 00 fb
D8F6  D8F6  78  06  DEC  01 55 e4 00 fb
D8F9  D8F9  78  06  BEQ  01 55 e4 00 fb
D8FF  D8FF  78  06  RTS  01 55 e4 00 fb
C618  C618  00  d9  JSR  01 55 e4 00 fd
D900  D900  a3  d9  LDA  01 55 e4 00 fb
D902  D902  33  d9  STA  a3 55 e4 00 fb
D904  D904  89  d9  LDA  a3 55 e4 00 fb
D906  D906  00  03  STA  89 55 e4 00 fb
D909  D909  12  03  LDA  89 55 e4 00 fb
D90B  D90B  45  02  STA  12 55 e4 00 fb
D90E  D90E  ff  02  LDA  12 55 e4 00 fb
D910  D910  01  02  STA  ff 55 e4 00 fb
D912  D912  65  02  LDX  ff 55 e4 00 fb
D914  D914  00  02  LDA  ff 65 e4 00 fb
D916  D916  89  02  STA  00 65 e4 00 fb
D918  D918  03  02  LDA  00 65 e4 00 fb
D91A  D91A  8a  02  STA  03 65 e4 00 fb
D91C  D91C  00  02  LDY  03 65 e4 00 fb
D91E  D91E  00  02  SEC  03 65 00 00 fb
D91F  D91F  00  02  LDA  03 65 00 00 fb
D921  D921  00  02  CLV  00 65 00 00 fb
D922  D922  89  02  LDA  00 65 00 00 fb
D924  D924  89  02  BEQ  89 65 00 00 fb
D926  D926  89  02  BCC  89 65 00 00 fb
D928  D928  89  02  BVS  89 65 00 00 fb
D92A  D92A  89  02  CMP  89 65 00 00 fb
D92C  D92C  89  02  BNE  89 65 00 00 fb
D92E  D92E  65  02  CPX  89 65 00 00 fb
D930  D930  65  02  BEQ  89 65 00 00 fb
D936  D936  ff  02  LDA  89 65 00 00 fb
D938  D938  97  02  STA  ff 65 00 00 fb
D93A  D93A  98  02  STA  ff 65 00 00 fb
D93C  D93C  98  02  BIT  ff 65 00 00 fb
D93E  D93E  34  02  LDY  ff 65 00 00 fb
D940  D940  97  02  LDA  ff 65 34 00 fb
D942  D942  a3  02  CMP  a3 65 34 00 fb
D944  D944  a3  02  BNE  a3 65 34 00 fb
D946  D946  a3  02  BCS  a3 65 34 00 fb
D94C  D94C  00  02  LDA  a3 65 34 00 fb
D94E  D94E  00  02  PHA  ce 65 34 00 fb
D94F  D94F  46  02  LDA  ce 65 34 00 fa
D951  D951  ff  02  STA  46 65 34 00 fa
D953  D953  01  02  LDA  46 65 34 00 fa
D955  D955  00  02  STA  01 65 34 00 fa
D957  D957  ff  02  LDY  01 65 34 00 fa
D959  D959  ff  02  LDA  01 65 ff 00 fa
D95B  D95B  12  02  CMP  00 65 ff 00 fa
D95D  D95D  12  02  BEQ  00 65 ff 00 fa
D95F  D95F  12  02  PLA  00 65 ff 00 fa
D960  D960  ec  02  LDA  ce 65 ff 00 fb
D962  D962  ec  02  PHA  ec 65 ff 00 fb
D963  D963  ec  02  PLA  ec 65 ff 00 fa
D964  D964  00  02  STA  ec 65 ff 00 fb
D966  D966  ed  02  LDX  ec 65 ff 00 fb
D968  D968  00  02  LDA  ec ed ff 00 fb
D96A  D96A  33  02  STA  00 ed ff 00 fb
D96C  D96C  04  02  LDA  00 ed ff 00 fb
D96E  D96E  34  02  STA  04 ed ff 00 fb
D970  D970  00  02  LDY  04 ed ff 00 fb
D972  D972  00  02  CLC  04 ed 00 00 fb
D973  D973  ff  02  LDA  04 ed 00 00 fb
D975  D975  01  02  STA  ff ed 00 00 fb
D977  D977  01  02  BIT  ff ed 00 00 fb
D979  D979  aa  02  LDA  ff ed 00 00 fb
D97B  D97B  00  04  STA  aa ed 00 00 fb
D97E  D97E  55  04  LDA  aa ed 00 00 fb
D980  D980  33  04  ORA  55 ed 00 00 fb
D982  D982  33  04  BCS  ff ed 00 00 fb
D984  D984  33  04  BPL  ff ed 00 00 fb
D986  D986  ff  04  CMP  ff ed 00 00 fb
D988  D988  ff  04  BNE  ff ed 00 00 fb
D98A  D98A  ff  04  BVS  ff ed 00 00 fb
D98E  D98E  ff  04  INX  ff ed 00 00 fb
D98F  D98F  ff  04  SEC  ff ee 00 00 fb
D990  D990  ff  04  CLV  ff ee 00 00 fb
D991  D991  00  04  LDA  ff ee 00 00 fb
D993  D993  33  04  ORA  00 ee 00 00 fb
D995  D995  33  04  BEQ  aa ee 00 00 fb
D997  D997  33  04  BVS  aa ee 00 00 fb
D999  D999  33  04  BCC  aa ee 00 00 fb
D99B  D99B  33  04  BMI  aa ee 00 00 fb
D99F  D99F  33  04  INX  aa ee 00 00 fb
D9A0  D9A0  33  04  CLC  aa ef 00 00 fb
D9A1  D9A1  01  04  BIT  aa ef 00 00 fb
D9A3  D9A3  55  04  LDA  aa ef 00 00 fb
D9A5  D9A5  33  04  AND  55 ef 00 00 fb
D9A7  D9A7  33  04  BNE  00 ef 00 00 fb
D9A9  D9A9  33  04  BVC  00 ef 00 00 fb
D9AB  D9AB  33  04  BCS  00 ef 00 00 fb
D9AD  D9AD  33  04  BPL  00 ef 00 00 fb
D9B1  D9B1  33  04  INX  00 ef 00 00 fb
D9B2  D9B2  33  04  SEC  00 f0 00 00 fb
D9B3  D9B3  33  04  CLV  00 f0 00 00 fb
D9B4  D9B4  ef  04  LDA  00 f0 00 00 fb
D9B6  D9B6  00  04  STA  ef f0 00 00 fb
D9B9  D9B9  f8  04  LDA  ef f0 00 00 fb
D9BB  D9BB  33  04  AND  f8 f0 00 00 fb
D9BD  D9BD  33  04  BCC  e8 f0 00 00 fb
D9BF  D9BF  33  04  BPL  e8 f0 00 00 fb
D9C1  D9C1  e8  04  CMP  e8 f0 00 00 fb
D9C3  D9C3  e8  04  BNE  e8 f0 00 00 fb
D9C5  D9C5  e8  04  BVC  e8 f0 00 00 fb
D9C9  D9C9  e8  04  INX  e8 f0 00 00 fb
D9CA  D9CA  e8  04  CLC  e8 f1 00 00 fb
D9CB  D9CB  01  04  BIT  e8 f1 00 00 fb
D9CD  D9CD  aa  04  LDA  e8 f1 00 00 fb
D9CF  D9CF  00  04  STA  aa f1 00 00 fb
D9D2  D9D2  5f  04  LDA  aa f1 00 00 fb
D9D4  D9D4  33  04  EOR  5f f1 00 00 fb
D9D6  D9D6  33  04  BCS  f5 f1 00 00 fb
D9D8  D9D8  33  04  BPL  f5 f1 00 00 fb
D9DA  D9DA  f5  04  CMP  f5 f1 00 00 fb
D9DC  D9DC  f5  04  BNE  f5 f1 00 00 fb
D9DE  D9DE  f5  04  BVS  f5 f1 00 00 fb
D9E2  D9E2  f5  04  INX  f5 f1 00 00 fb
D9E3  D9E3  f5  04  SEC  f5 f2 00 00 fb
D9E4  D9E4  f5  04  CLV  f5 f2 00 00 fb
D9E5  D9E5  70  04  LDA  f5 f2 00 00 fb
D9E7  D9E7  00  04  STA  70 f2 00 00 fb
D9EA  D9EA  33  04  EOR  70 f2 00 00 fb
D9EC  D9EC  33  04  BNE  00 f2 00 00 fb
D9EE  D9EE  33  04  BVS  00 f2 00 00 fb
D9F0  D9F0  33  04  BCC  00 f2 00 00 fb
D9F2  D9F2  33  04  BPL  00 f2 00 00 fb
D9F6  D9F6  33  04  INX  00 f2 00 00 fb
D9F7  D9F7  33  04  CLC  00 f3 00 00 fb
D9F8  D9F8  01  04  BIT  00 f3 00 00 fb
D9FA  D9FA  69  04  LDA  00 f3 00 00 fb
D9FC  D9FC  00  04  STA  69 f3 00 00 fb
D9FF  D9FF  00  04  LDA  69 f3 00 00 fb
DA01  DA01  33  04  ADC  00 f3 00 00 fb
DA03  DA03  33  04  BMI  69 f3 00 00 fb
DA05  DA05  33  04  BCS  69 f3 00 00 fb
DA07  DA07  69  04  CMP  69 f3 00 00 fb
DA09  DA09  69  04  BNE  69 f3 00 00 fb
DA0B  DA0B  69  04  BVC  69 f3 00 00 fb
DA0F  DA0F  69  04  INX  69 f3 00 00 fb
DA10  DA10  69  04  SEC  69 f4 00 00 fb
DA11  DA11  01  04  BIT  69 f4 00 00 fb
DA13  DA13  00  04  LDA  69 f4 00 00 fb
DA15  DA15  33  04  ADC  00 f4 00 00 fb
DA17  DA17  33  04  BMI  6a f4 00 00 fb
DA19  DA19  33  04  BCS  6a f4 00 00 fb
DA1B  DA1B  6a  04  CMP  6a f4 00 00 fb
DA1D  DA1D  6a  04  BNE  6a f4 00 00 fb
DA1F  DA1F  6a  04  BVC  6a f4 00 00 fb
DA23  DA23  6a  04  INX  6a f4 00 00 fb
DA24  DA24  6a  04  SEC  6a f5 00 00 fb
DA25  DA25  6a  04  CLV  6a f5 00 00 fb
DA26  DA26  7f  04  LDA  6a f5 00 00 fb
DA28  DA28  00  04  STA  7f f5 00 00 fb
DA2B  DA2B  33  04  ADC  7f f5 00 00 fb
DA2D  DA2D  33  04  BPL  ff f5 00 00 fb
DA2F  DA2F  33  04  BCS  ff f5 00 00 fb
DA31  DA31  ff  04  CMP  ff f5 00 00 fb
DA33  DA33  ff  04  BNE  ff f5 00 00 fb
DA35  DA35  ff  04  BVS  ff f5 00 00 fb
DA39  DA39  ff  04  INX  ff f5 00 00 fb
DA3A  DA3A  ff  04  CLC  ff f6 00 00 fb
DA3B  DA3B  01  04  BIT  ff f6 00 00 fb
DA3D  DA3D  80  04  LDA  ff f6 00 00 fb
DA3F  DA3F  00  04  STA  80 f6 00 00 fb
DA42  DA42  7f  04  LDA  80 f6 00 00 fb
DA44  DA44  33  04  ADC  7f f6 00 00 fb
DA46  DA46  33  04  BPL  ff f6 00 00 fb
DA48  DA48  33  04  BCS  ff f6 00 00 fb
DA4A  DA4A  ff  04  CMP  ff f6 00 00 fb
DA4C  DA4C  ff  04  BNE  ff f6 00 00 fb
DA4E  DA4E  ff  04  BVC  ff f6 00 00 fb
DA52  DA52  ff  04  INX  ff f6 00 00 fb
DA53  DA53  ff  04  SEC  ff f7 00 00 fb
DA54  DA54  ff  04  CLV  ff f7 00 00 fb
DA55  DA55  80  04  LDA  ff f7 00 00 fb
DA57  DA57  00  04  STA  80 f7 00 00 fb
DA5A  DA5A  7f  04  LDA  80 f7 00 00 fb
DA5C  DA5C  33  04  ADC  7f f7 00 00 fb
DA5E  DA5E  33  04  BNE  00 f7 00 00 fb
DA60  DA60  33  04  BMI  00 f7 00 00 fb
DA62  DA62  33  04  BVS  00 f7 00 00 fb
DA64  DA64  33  04  BCS  00 f7 00 00 fb
DA68  DA68  33  04  INX  00 f7 00 00 fb
DA69  DA69  01  04  BIT  00 f8 00 00 fb
DA6B  DA6B  40  04  LDA  00 f8 00 00 fb
DA6D  DA6D  00  04  STA  40 f8 00 00 fb
DA70  DA70  33  04  CMP  40 f8 00 00 fb
DA72  DA72  33  04  BMI  40 f8 00 00 fb
DA74  DA74  33  04  BCC  40 f8 00 00 fb
DA76  DA76  33  04  BNE  40 f8 00 00 fb
DA78  DA78  33  04  BVS  40 f8 00 00 fb
DA7C  DA7C  33  04  INX  40 f8 00 00 fb
DA7D  DA7D  33  04  CLV  40 f9 00 00 fb
DA7E  DA7E  00  04  DEC  40 f9 00 00 fb
DA81  DA81  33  04  CMP  40 f9 00 00 fb
DA83  DA83  33  04  BEQ  40 f9 00 00 fb
DA85  DA85  33  04  BMI  40 f9 00 00 fb
DA87  DA87  33  04  BCC  40 f9 00 00 fb
DA89  DA89  33  04  BVC  40 f9 00 00 fb
DA8D  DA8D  33  04  INX  40 f9 00 00 fb
DA8E  DA8E  00  04  INC  40 fa 00 00 fb
DA91  DA91  00  04  INC  40 fa 00 00 fb
DA94  DA94  33  04  CMP  40 fa 00 00 fb
DA96  DA96  33  04  BEQ  40 fa 00 00 fb
DA98  DA98  33  04  BMI  40 fa 00 00 fb
DA9C  DA9C  33  04  INX  40 fa 00 00 fb
DA9D  DA9D  00  04  LDA  40 fb 00 00 fb
DA9F  DA9F  00  04  STA  00 fb 00 00 fb
DAA2  DAA2  80  04  LDA  00 fb 00 00 fb
DAA4  DAA4  33  04  CMP  80 fb 00 00 fb
DAA6  DAA6  33  04  BEQ  80 fb 00 00 fb
DAA8  DAA8  33  04  BPL  80 fb 00 00 fb
DAAA  DAAA  33  04  BCS  80 fb 00 00 fb
DAAE  DAAE  33  04  INX  80 fb 00 00 fb
DAAF  DAAF  80  04  LDY  80 fc 00 00 fb
DAB1  DAB1  00  04  STY  80 fc 80 00 fb
DAB4  DAB4  00  04  LDY  80 fc 80 00 fb
DAB6  DAB6  33  04  CMP  80 fc 00 00 fb
DAB8  DAB8  33  04  BNE  80 fc 00 00 fb
DABA  DABA  33  04  BMI  80 fc 00 00 fb
DABC  DABC  33  04  BCS  80 fc 00 00 fb
DAC0  DAC0  33  04  INX  80 fc 00 00 fb
DAC1  DAC1  00  04  INC  80 fd 00 00 fb
DAC4  DAC4  33  04  CMP  80 fd 00 00 fb
DAC6  DAC6  33  04  BCS  80 fd 00 00 fb
DAC8  DAC8  33  04  BEQ  80 fd 00 00 fb
DACA  DACA  33  04  BMI  80 fd 00 00 fb
DACE  DACE  33  04  INX  80 fd 00 00 fb
DACF  DACF  00  04  DEC  80 fe 00 00 fb
DAD2  DAD2  00  04  DEC  80 fe 00 00 fb
DAD5  DAD5  33  04  CMP  80 fe 00 00 fb
DAD7  DAD7  33  04  BCC  80 fe 00 00 fb
DAD9  DAD9  33  04  BEQ  80 fe 00 00 fb
DADB  DADB  33  04  BPL  80 fe 00 00 fb
DADF  DADF  33  04  RTS  80 fe 00 00 fb
C61B  C61B  00  04  LDA  80 fe 00 00 fd
C61D  C61D  10  04  STA  ec fe 00 00 fd
C61F  C61F  00  04  LDA  ec fe 00 00 fd
C621  C621  00  04  STA  00 fe 00 00 fd
C623  C623  e0  da  JSR  00 fe 00 00 fd
DAE0  DAE0  00  da  LDA  00 fe 00 00 fb
DAE2  DAE2  33  da  STA  00 fe 00 00 fb
DAE4  DAE4  04  da  LDA  00 fe 00 00 fb
DAE6  DAE6  34  da  STA  04 fe 00 00 fb
DAE8  DAE8  00  da  LDY  04 fe 00 00 fb
DAEA  DAEA  01  da  LDX  04 fe 00 00 fb
DAEC  DAEC  01  da  BIT  04 01 00 00 fb
DAEE  DAEE  40  da  LDA  04 01 00 00 fb
DAF0  DAF0  00  04  STA  40 01 00 00 fb
DAF3  DAF3  00  04  SEC  40 01 00 00 fb
DAF4  DAF4  33  04  SBC  40 01 00 00 fb
DAF6  DAF6  33  04  BMI  00 01 00 00 fb
DAF8  DAF8  33  04  BCC  00 01 00 00 fb
DB02  DB02  00  04  STX  00 01 00 00 fb
DB04  DB04  00  04  INX  00 01 00 00 fb
DB05  DB05  00  04  CLV  00 02 00 00 fb
DB06  DB06  00  04  SEC  00 02 00 00 fb
DB07  DB07  40  04  LDA  00 02 00 00 fb
DB09  DB09  00  04  DEC  40 02 00 00 fb
DB0C  DB0C  33  04  SBC  40 02 00 00 fb
DB0E  DB0E  33  04  BEQ  01 02 00 00 fb
DB10  DB10  33  04  BMI  01 02 00 00 fb
DB12  DB12  33  04  BCC  01 02 00 00 fb
DB1A  DB1A  00  04  STX  01 02 00 00 fb
DB1C  DB1C  00  04  INX  01 02 00 00 fb
DB1D  DB1D  40  04  LDA  01 03 00 00 fb
DB1F  DB1F  40  04  SEC  40 03 00 00 fb
DB20  DB20  01  04  BIT  40 03 00 00 fb
DB22  DB22  00  04  INC  40 03 00 00 fb
DB25  DB25  00  04  INC  40 03 00 00 fb
DB28  DB28  33  04  SBC  40 03 00 00 fb
DB2A  DB2A  33  04  BCS  ff 03 00 00 fb
DB2C  DB2C  33  04  BEQ  ff 03 00 00 fb
DB2E  DB2E  33  04  BPL  ff 03 00 00 fb
DB30  DB30  33  04  BVS  ff 03 00 00 fb
DB32  DB32  ff  04  CMP  ff 03 00 00 fb
DB34  DB34  ff  04  BEQ  ff 03 00 00 fb
DB38  DB38  ff  04  INX  ff 03 00 00 fb
DB39  DB39  ff  04  CLC  ff 04 00 00 fb
DB3A  DB3A  00  04  LDA  ff 04 00 00 fb
DB3C  DB3C  00  04  STA  00 04 00 00 fb
DB3F  DB3F  80  04  LDA  00 04 00 00 fb
DB41  DB41  33  04  SBC  80 04 00 00 fb
DB43  DB43  33  04  BCC  7f 04 00 00 fb
DB49  DB49  00  04  STX  7f 04 00 00 fb
DB4B  DB4B  00  04  INX  7f 04 00 00 fb
DB4C  DB4C  00  04  SEC  7f 05 00 00 fb
DB4D  DB4D  7f  04  LDA  7f 05 00 00 fb
DB4F  DB4F  00  04  STA  7f 05 00 00 fb
DB52  DB52  81  04  LDA  7f 05 00 00 fb
DB54  DB54  33  04  SBC  81 05 00 00 fb
DB56  DB56  33  04  BVC  02 05 00 00 fb
DB58  DB58  33  04  BCC  02 05 00 00 fb
DB5E  DB5E  00  04  STX  02 05 00 00 fb
DB60  DB60  00  04  INX  02 05 00 00 fb
DB61  DB61  00  04  LDA  02 06 00 00 fb
DB63  DB63  87  04  LDA  00 06 00 00 fb
DB65  DB65  33  04  STA  87 06 00 00 fb
DB67  DB67  00  04  LDA  87 06 00 00 fb
DB6A  DB6A  87  04  CMP  87 06 00 00 fb
DB6C  DB6C  87  04  BEQ  87 06 00 00 fb
DB70  DB70  87  04  INX  87 06 00 00 fb
DB71  DB71  7e  04  LDA  87 07 00 00 fb
DB73  DB73  00  02  STA  7e 07 00 00 fb
DB76  DB76  db  02  LDA  7e 07 00 00 fb
DB78  DB78  01  02  STA  db 07 00 00 fb
DB7B  DB7B  00  02  JMP  db 07 00 00 fb
DB7E  DB7E  00  02  LDA  db 07 00 00 fb
DB80  DB80  ff  02  STA  00 07 00 00 fb
DB83  DB83  01  02  LDA  00 07 00 00 fb
DB85  DB85  00  03  STA  01 07 00 00 fb
DB88  DB88  03  03  LDA  01 07 00 00 fb
DB8A  DB8A  00  02  STA  03 07 00 00 fb
DB8D  DB8D  a9  02  LDA  03 07 00 00 fb
DB8F  DB8F  00  01  STA  a9 07 00 00 fb
DB92  DB92  55  01  LDA  a9 07 00 00 fb
DB94  DB94  01  01  STA  55 07 00 00 fb
DB97  DB97  60  01  LDA  55 07 00 00 fb
DB99  DB99  02  01  STA  60 07 00 00 fb
DB9C  DB9C  a9  01  LDA  60 07 00 00 fb
DB9E  DB9E  00  03  STA  a9 07 00 00 fb
DBA1  DBA1  aa  03  LDA  a9 07 00 00 fb
DBA3  DBA3  01  03  STA  aa 07 00 00 fb
DBA6  DBA6  60  03  LDA  aa 07 00 00 fb
DBA8  DBA8  02  03  STA  60 07 00 00 fb
DBAB  DBAB  b5  db  JSR  60 07 00 00 fb
DBB5  DBB5  ff  02  JMP  60 07 00 00 f9
A900  A900  ff  02  BRK  60 07 00 00 f9
C5F4  C5F4  ff  02  RTI  60 07 00 00 f6
A902  A902  ff  02  NOP  60 07 00 00 f9
A903  A903  ff  02  NOP  60 07 00 00 f9
A904  A904  ff  02  NOP  60 07 00 00 f9
A905  A905  76  f9  JSR  60 07 00 00 f9
F976  F976  76  f9  BCC  60 07 00 00 f7
F978  F978  7f  f9  CMP  60 07 00 00 f7
F97A  F97A  7f  f9  BNE  60 07 00 00 f7
F97D  F97D  00  f9  STY  60 07 00 00 f7
F97F  F97F  00  f9  RTS  60 07 00 00 f7
A908  A908  00  f9  INY  60 07 00 00 f9
A909  A909  80  f9  JSR  60 07 01 00 f9
F980  F980  80  f9  SEC  60 07 01 00 f7
F981  F981  81  f9  LDA  60 07 01 00 f7
F983  F983  81  f9  RTS  81 07 01 00 f7
